(imap
Map
p0
(dp1
S'continents'
p2
(dp3
sS'width'
p4
I200
sS'down_borders'
p5
(lp6
(dp7
I0
(imap
Border
p8
(dp9
S'neighbors'
p10
(lp11
NaS'ocean'
p12
asbsI1
(imap
Border
p13
(dp14
g10
(lp15
Nag12
asbsI2
(imap
Border
p16
(dp17
g10
(lp18
Nag12
asbsI3
(imap
Border
p19
(dp20
g10
(lp21
Nag12
asbsI4
(imap
Border
p22
(dp23
g10
(lp24
Nag12
asbsI5
(imap
Border
p25
(dp26
g10
(lp27
Nag12
asbsI6
(imap
Border
p28
(dp29
g10
(lp30
Nag12
asbsI7
(imap
Border
p31
(dp32
g10
(lp33
Nag12
asbsI8
(imap
Border
p34
(dp35
g10
(lp36
Nag12
asbsI9
(imap
Border
p37
(dp38
g10
(lp39
Nag12
asbsI10
(imap
Border
p40
(dp41
g10
(lp42
Nag12
asbsI11
(imap
Border
p43
(dp44
g10
(lp45
Nag12
asbsI12
(imap
Border
p46
(dp47
g10
(lp48
Nag12
asbsI13
(imap
Border
p49
(dp50
g10
(lp51
Nag12
asbsI14
(imap
Border
p52
(dp53
g10
(lp54
Nag12
asbsI15
(imap
Border
p55
(dp56
g10
(lp57
Nag12
asbsI16
(imap
Border
p58
(dp59
g10
(lp60
Nag12
asbsI17
(imap
Border
p61
(dp62
g10
(lp63
Nag12
asbsI18
(imap
Border
p64
(dp65
g10
(lp66
Nag12
asbsI19
(imap
Border
p67
(dp68
g10
(lp69
Nag12
asbsI20
(imap
Border
p70
(dp71
g10
(lp72
Nag12
asbsI21
(imap
Border
p73
(dp74
g10
(lp75
Nag12
asbsI22
(imap
Border
p76
(dp77
g10
(lp78
Nag12
asbsI23
(imap
Border
p79
(dp80
g10
(lp81
Nag12
asbsI24
(imap
Border
p82
(dp83
g10
(lp84
Nag12
asbsI25
(imap
Border
p85
(dp86
g10
(lp87
Nag12
asbsI26
(imap
Border
p88
(dp89
g10
(lp90
Nag12
asbsI27
(imap
Border
p91
(dp92
g10
(lp93
Nag12
asbsI28
(imap
Border
p94
(dp95
g10
(lp96
Nag12
asbsI29
(imap
Border
p97
(dp98
g10
(lp99
Nag12
asbsI30
(imap
Border
p100
(dp101
g10
(lp102
Nag12
asbsI31
(imap
Border
p103
(dp104
g10
(lp105
Nag12
asbsI32
(imap
Border
p106
(dp107
g10
(lp108
Nag12
asbsI33
(imap
Border
p109
(dp110
g10
(lp111
Nag12
asbsI34
(imap
Border
p112
(dp113
g10
(lp114
Nag12
asbsI35
(imap
Border
p115
(dp116
g10
(lp117
Nag12
asbsI36
(imap
Border
p118
(dp119
g10
(lp120
Nag12
asbsI37
(imap
Border
p121
(dp122
g10
(lp123
Nag12
asbsI38
(imap
Border
p124
(dp125
g10
(lp126
Nag12
asbsI39
(imap
Border
p127
(dp128
g10
(lp129
Nag12
asbsI40
(imap
Border
p130
(dp131
g10
(lp132
Nag12
asbsI41
(imap
Border
p133
(dp134
g10
(lp135
Nag12
asbsI42
(imap
Border
p136
(dp137
g10
(lp138
Nag12
asbsI43
(imap
Border
p139
(dp140
g10
(lp141
Nag12
asbsI44
(imap
Border
p142
(dp143
g10
(lp144
Nag12
asbsI45
(imap
Border
p145
(dp146
g10
(lp147
Nag12
asbsI46
(imap
Border
p148
(dp149
g10
(lp150
Nag12
asbsI47
(imap
Border
p151
(dp152
g10
(lp153
Nag12
asbsI48
(imap
Border
p154
(dp155
g10
(lp156
Nag12
asbsI49
(imap
Border
p157
(dp158
g10
(lp159
Nag12
asbsI50
(imap
Border
p160
(dp161
g10
(lp162
Nag12
asbsI51
(imap
Border
p163
(dp164
g10
(lp165
Nag12
asbsI52
(imap
Border
p166
(dp167
g10
(lp168
Nag12
asbsI53
(imap
Border
p169
(dp170
g10
(lp171
Nag12
asbsI54
(imap
Border
p172
(dp173
g10
(lp174
Nag12
asbsI55
(imap
Border
p175
(dp176
g10
(lp177
Nag12
asbsI56
(imap
Border
p178
(dp179
g10
(lp180
Nag12
asbsI57
(imap
Border
p181
(dp182
g10
(lp183
Nag12
asbsI58
(imap
Border
p184
(dp185
g10
(lp186
Nag12
asbsI59
(imap
Border
p187
(dp188
g10
(lp189
Nag12
asbsI60
(imap
Border
p190
(dp191
g10
(lp192
Nag12
asbsI61
(imap
Border
p193
(dp194
g10
(lp195
Nag12
asbsI62
(imap
Border
p196
(dp197
g10
(lp198
Nag12
asbsI63
(imap
Border
p199
(dp200
g10
(lp201
Nag12
asbsI64
(imap
Border
p202
(dp203
g10
(lp204
Nag12
asbsI65
(imap
Border
p205
(dp206
g10
(lp207
Nag12
asbsI66
(imap
Border
p208
(dp209
g10
(lp210
Nag12
asbsI67
(imap
Border
p211
(dp212
g10
(lp213
Nag12
asbsI68
(imap
Border
p214
(dp215
g10
(lp216
Nag12
asbsI69
(imap
Border
p217
(dp218
g10
(lp219
Nag12
asbsI70
(imap
Border
p220
(dp221
g10
(lp222
Nag12
asbsI71
(imap
Border
p223
(dp224
g10
(lp225
Nag12
asbsI72
(imap
Border
p226
(dp227
g10
(lp228
Nag12
asbsI73
(imap
Border
p229
(dp230
g10
(lp231
Nag12
asbsI74
(imap
Border
p232
(dp233
g10
(lp234
Nag12
asbsI75
(imap
Border
p235
(dp236
g10
(lp237
Nag12
asbsI76
(imap
Border
p238
(dp239
g10
(lp240
Nag12
asbsI77
(imap
Border
p241
(dp242
g10
(lp243
Nag12
asbsI78
(imap
Border
p244
(dp245
g10
(lp246
Nag12
asbsI79
(imap
Border
p247
(dp248
g10
(lp249
Nag12
asbsI80
(imap
Border
p250
(dp251
g10
(lp252
Nag12
asbsI81
(imap
Border
p253
(dp254
g10
(lp255
Nag12
asbsI82
(imap
Border
p256
(dp257
g10
(lp258
Nag12
asbsI83
(imap
Border
p259
(dp260
g10
(lp261
Nag12
asbsI84
(imap
Border
p262
(dp263
g10
(lp264
Nag12
asbsI85
(imap
Border
p265
(dp266
g10
(lp267
Nag12
asbsI86
(imap
Border
p268
(dp269
g10
(lp270
Nag12
asbsI87
(imap
Border
p271
(dp272
g10
(lp273
Nag12
asbsI88
(imap
Border
p274
(dp275
g10
(lp276
Nag12
asbsI89
(imap
Border
p277
(dp278
g10
(lp279
Nag12
asbsI90
(imap
Border
p280
(dp281
g10
(lp282
Nag12
asbsI91
(imap
Border
p283
(dp284
g10
(lp285
Nag12
asbsI92
(imap
Border
p286
(dp287
g10
(lp288
Nag12
asbsI93
(imap
Border
p289
(dp290
g10
(lp291
Nag12
asbsI94
(imap
Border
p292
(dp293
g10
(lp294
Nag12
asbsI95
(imap
Border
p295
(dp296
g10
(lp297
Nag12
asbsI96
(imap
Border
p298
(dp299
g10
(lp300
Nag12
asbsI97
(imap
Border
p301
(dp302
g10
(lp303
Nag12
asbsI98
(imap
Border
p304
(dp305
g10
(lp306
Nag12
asbsI99
(imap
Border
p307
(dp308
g10
(lp309
Nag12
asbsI100
(imap
Border
p310
(dp311
g10
(lp312
Nag12
asbsI101
(imap
Border
p313
(dp314
g10
(lp315
Nag12
asbsI102
(imap
Border
p316
(dp317
g10
(lp318
Nag12
asbsI103
(imap
Border
p319
(dp320
g10
(lp321
Nag12
asbsI104
(imap
Border
p322
(dp323
g10
(lp324
Nag12
asbsI105
(imap
Border
p325
(dp326
g10
(lp327
Nag12
asbsI106
(imap
Border
p328
(dp329
g10
(lp330
Nag12
asbsI107
(imap
Border
p331
(dp332
g10
(lp333
Nag12
asbsI108
(imap
Border
p334
(dp335
g10
(lp336
Nag12
asbsI109
(imap
Border
p337
(dp338
g10
(lp339
Nag12
asbsI110
(imap
Border
p340
(dp341
g10
(lp342
Nag12
asbsI111
(imap
Border
p343
(dp344
g10
(lp345
Nag12
asbsI112
(imap
Border
p346
(dp347
g10
(lp348
Nag12
asbsI113
(imap
Border
p349
(dp350
g10
(lp351
Nag12
asbsI114
(imap
Border
p352
(dp353
g10
(lp354
Nag12
asbsI115
(imap
Border
p355
(dp356
g10
(lp357
Nag12
asbsI116
(imap
Border
p358
(dp359
g10
(lp360
Nag12
asbsI117
(imap
Border
p361
(dp362
g10
(lp363
Nag12
asbsI118
(imap
Border
p364
(dp365
g10
(lp366
Nag12
asbsI119
(imap
Border
p367
(dp368
g10
(lp369
Nag12
asbsI120
(imap
Border
p370
(dp371
g10
(lp372
Nag12
asbsI121
(imap
Border
p373
(dp374
g10
(lp375
Nag12
asbsI122
(imap
Border
p376
(dp377
g10
(lp378
Nag12
asbsI123
(imap
Border
p379
(dp380
g10
(lp381
Nag12
asbsI124
(imap
Border
p382
(dp383
g10
(lp384
Nag12
asbsI125
(imap
Border
p385
(dp386
g10
(lp387
Nag12
asbsI126
(imap
Border
p388
(dp389
g10
(lp390
Nag12
asbsI127
(imap
Border
p391
(dp392
g10
(lp393
Nag12
asbsI128
(imap
Border
p394
(dp395
g10
(lp396
Nag12
asbsI129
(imap
Border
p397
(dp398
g10
(lp399
Nag12
asbsI130
(imap
Border
p400
(dp401
g10
(lp402
Nag12
asbsI131
(imap
Border
p403
(dp404
g10
(lp405
Nag12
asbsI132
(imap
Border
p406
(dp407
g10
(lp408
Nag12
asbsI133
(imap
Border
p409
(dp410
g10
(lp411
Nag12
asbsI134
(imap
Border
p412
(dp413
g10
(lp414
Nag12
asbsI135
(imap
Border
p415
(dp416
g10
(lp417
Nag12
asbsI136
(imap
Border
p418
(dp419
g10
(lp420
Nag12
asbsI137
(imap
Border
p421
(dp422
g10
(lp423
Nag12
asbsI138
(imap
Border
p424
(dp425
g10
(lp426
Nag12
asbsI139
(imap
Border
p427
(dp428
g10
(lp429
Nag12
asbsI140
(imap
Border
p430
(dp431
g10
(lp432
Nag12
asbsI141
(imap
Border
p433
(dp434
g10
(lp435
Nag12
asbsI142
(imap
Border
p436
(dp437
g10
(lp438
Nag12
asbsI143
(imap
Border
p439
(dp440
g10
(lp441
Nag12
asbsI144
(imap
Border
p442
(dp443
g10
(lp444
Nag12
asbsI145
(imap
Border
p445
(dp446
g10
(lp447
Nag12
asbsI146
(imap
Border
p448
(dp449
g10
(lp450
Nag12
asbsI147
(imap
Border
p451
(dp452
g10
(lp453
Nag12
asbsI148
(imap
Border
p454
(dp455
g10
(lp456
Nag12
asbsI149
(imap
Border
p457
(dp458
g10
(lp459
Nag12
asbsI150
(imap
Border
p460
(dp461
g10
(lp462
Nag12
asbsI151
(imap
Border
p463
(dp464
g10
(lp465
Nag12
asbsI152
(imap
Border
p466
(dp467
g10
(lp468
Nag12
asbsI153
(imap
Border
p469
(dp470
g10
(lp471
Nag12
asbsI154
(imap
Border
p472
(dp473
g10
(lp474
Nag12
asbsI155
(imap
Border
p475
(dp476
g10
(lp477
Nag12
asbsI156
(imap
Border
p478
(dp479
g10
(lp480
Nag12
asbsI157
(imap
Border
p481
(dp482
g10
(lp483
Nag12
asbsI158
(imap
Border
p484
(dp485
g10
(lp486
Nag12
asbsI159
(imap
Border
p487
(dp488
g10
(lp489
Nag12
asbsI160
(imap
Border
p490
(dp491
g10
(lp492
Nag12
asbsI161
(imap
Border
p493
(dp494
g10
(lp495
Nag12
asbsI162
(imap
Border
p496
(dp497
g10
(lp498
Nag12
asbsI163
(imap
Border
p499
(dp500
g10
(lp501
Nag12
asbsI164
(imap
Border
p502
(dp503
g10
(lp504
Nag12
asbsI165
(imap
Border
p505
(dp506
g10
(lp507
Nag12
asbsI166
(imap
Border
p508
(dp509
g10
(lp510
Nag12
asbsI167
(imap
Border
p511
(dp512
g10
(lp513
Nag12
asbsI168
(imap
Border
p514
(dp515
g10
(lp516
Nag12
asbsI169
(imap
Border
p517
(dp518
g10
(lp519
Nag12
asbsI170
(imap
Border
p520
(dp521
g10
(lp522
Nag12
asbsI171
(imap
Border
p523
(dp524
g10
(lp525
Nag12
asbsI172
(imap
Border
p526
(dp527
g10
(lp528
Nag12
asbsI173
(imap
Border
p529
(dp530
g10
(lp531
Nag12
asbsI174
(imap
Border
p532
(dp533
g10
(lp534
Nag12
asbsI175
(imap
Border
p535
(dp536
g10
(lp537
Nag12
asbsI176
(imap
Border
p538
(dp539
g10
(lp540
Nag12
asbsI177
(imap
Border
p541
(dp542
g10
(lp543
Nag12
asbsI178
(imap
Border
p544
(dp545
g10
(lp546
Nag12
asbsI179
(imap
Border
p547
(dp548
g10
(lp549
Nag12
asbsI180
(imap
Border
p550
(dp551
g10
(lp552
Nag12
asbsI181
(imap
Border
p553
(dp554
g10
(lp555
Nag12
asbsI182
(imap
Border
p556
(dp557
g10
(lp558
Nag12
asbsI183
(imap
Border
p559
(dp560
g10
(lp561
Nag12
asbsI184
(imap
Border
p562
(dp563
g10
(lp564
Nag12
asbsI185
(imap
Border
p565
(dp566
g10
(lp567
Nag12
asbsI186
(imap
Border
p568
(dp569
g10
(lp570
Nag12
asbsI187
(imap
Border
p571
(dp572
g10
(lp573
Nag12
asbsI188
(imap
Border
p574
(dp575
g10
(lp576
Nag12
asbsI189
(imap
Border
p577
(dp578
g10
(lp579
Nag12
asbsI190
(imap
Border
p580
(dp581
g10
(lp582
Nag12
asbsI191
(imap
Border
p583
(dp584
g10
(lp585
Nag12
asbsI192
(imap
Border
p586
(dp587
g10
(lp588
Nag12
asbsI193
(imap
Border
p589
(dp590
g10
(lp591
Nag12
asbsI194
(imap
Border
p592
(dp593
g10
(lp594
Nag12
asbsI195
(imap
Border
p595
(dp596
g10
(lp597
Nag12
asbsI196
(imap
Border
p598
(dp599
g10
(lp600
Nag12
asbsI197
(imap
Border
p601
(dp602
g10
(lp603
Nag12
asbsI198
(imap
Border
p604
(dp605
g10
(lp606
Nag12
asbsI199
(imap
Border
p607
(dp608
g10
(lp609
Nag12
asbsa(dp610
a(dp611
a(dp612
a(dp613
I50
(imap
Border
p614
(dp615
g10
(lp616
g12
ag12
asbsI51
(imap
Border
p617
(dp618
g10
(lp619
g12
ag12
asbsI54
(imap
Border
p620
(dp621
g10
(lp622
g12
ag12
asbsI55
(imap
Border
p623
(dp624
g10
(lp625
g12
ag12
asbsI56
(imap
Border
p626
(dp627
g10
(lp628
g12
ag12
asbsI58
(imap
Border
p629
(dp630
g10
(lp631
g12
ag12
asbsa(dp632
I57
(imap
Border
p633
(dp634
g10
(lp635
g12
ag12
asbsI59
(imap
Border
p636
(dp637
g10
(lp638
g12
ag12
asbsI60
(imap
Border
p639
(dp640
g10
(lp641
g12
ag12
asbsI61
(imap
Border
p642
(dp643
g10
(lp644
g12
ag12
asbsI52
(imap
Border
p645
(dp646
g10
(lp647
g12
ag12
asbsa(dp648
I60
(imap
Border
p649
(dp650
g10
(lp651
g12
ag12
asbsI61
(imap
Border
p652
(dp653
g10
(lp654
g12
ag12
asbsI53
(imap
Border
p655
(dp656
g10
(lp657
g12
ag12
asbsa(dp658
I62
(imap
Border
p659
(dp660
g10
(lp661
g12
ag12
asbsa(dp662
a(dp663
a(dp664
a(dp665
I64
(imap
Border
p666
(dp667
g10
(lp668
g12
ag12
asbsI63
(imap
Border
p669
(dp670
g10
(lp671
g12
ag12
asbsa(dp672
I65
(imap
Border
p673
(dp674
g10
(lp675
g12
ag12
asbsa(dp676
I64
(imap
Border
p677
(dp678
g10
(lp679
g12
ag12
asbsI66
(imap
Border
p680
(dp681
g10
(lp682
g12
ag12
asbsa(dp683
I67
(imap
Border
p684
(dp685
g10
(lp686
g12
ag12
asbsI68
(imap
Border
p687
(dp688
g10
(lp689
g12
ag12
asbsI69
(imap
Border
p690
(dp691
g10
(lp692
g12
ag12
asbsI70
(imap
Border
p693
(dp694
g10
(lp695
g12
ag12
asbsI71
(imap
Border
p696
(dp697
g10
(lp698
g12
ag12
asbsI72
(imap
Border
p699
(dp700
g10
(lp701
g12
ag12
asbsI49
(imap
Border
p702
(dp703
g10
(lp704
g12
ag12
asbsI89
(imap
Border
p705
(dp706
g10
(lp707
g12
ag12
asbsI90
(imap
Border
p708
(dp709
g10
(lp710
g12
ag12
asbsa(dp711
I91
(imap
Border
p712
(dp713
g10
(lp714
g12
ag12
asbsI92
(imap
Border
p715
(dp716
g10
(lp717
g12
ag12
asbsI47
(imap
Border
p718
(dp719
g10
(lp720
g12
ag12
asbsI48
(imap
Border
p721
(dp722
g10
(lp723
g12
ag12
asbsI49
(imap
Border
p724
(dp725
g10
(lp726
g12
ag12
asbsI83
(imap
Border
p727
(dp728
g10
(lp729
g12
ag12
asbsI84
(imap
Border
p730
(dp731
g10
(lp732
g12
ag12
asbsI85
(imap
Border
p733
(dp734
g10
(lp735
g12
ag12
asbsI86
(imap
Border
p736
(dp737
g10
(lp738
g12
ag12
asbsI87
(imap
Border
p739
(dp740
g10
(lp741
g12
ag12
asbsI88
(imap
Border
p742
(dp743
g10
(lp744
g12
ag12
asbsI58
(imap
Border
p745
(dp746
g10
(lp747
g12
ag12
asbsI59
(imap
Border
p748
(dp749
g10
(lp750
g12
ag12
asbsI60
(imap
Border
p751
(dp752
g10
(lp753
g12
ag12
asbsI61
(imap
Border
p754
(dp755
g10
(lp756
g12
ag12
asbsI62
(imap
Border
p757
(dp758
g10
(lp759
g12
ag12
asbsI63
(imap
Border
p760
(dp761
g10
(lp762
g12
ag12
asbsa(dp763
I96
(imap
Border
p764
(dp765
g10
(lp766
g12
ag12
asbsI97
(imap
Border
p767
(dp768
g10
(lp769
g12
ag12
asbsI73
(imap
Border
p770
(dp771
g10
(lp772
g12
ag12
asbsI74
(imap
Border
p773
(dp774
g10
(lp775
g12
ag12
asbsI82
(imap
Border
p776
(dp777
g10
(lp778
g12
ag12
asbsI78
(imap
Border
p779
(dp780
g10
(lp781
g12
ag12
asbsI79
(imap
Border
p782
(dp783
g10
(lp784
g12
ag12
asbsI80
(imap
Border
p785
(dp786
g10
(lp787
g12
ag12
asbsI81
(imap
Border
p788
(dp789
g10
(lp790
g12
ag12
asbsI50
(imap
Border
p791
(dp792
g10
(lp793
g12
ag12
asbsI51
(imap
Border
p794
(dp795
g10
(lp796
g12
ag12
asbsI52
(imap
Border
p797
(dp798
g10
(lp799
g12
ag12
asbsI53
(imap
Border
p800
(dp801
g10
(lp802
g12
ag12
asbsI54
(imap
Border
p803
(dp804
g10
(lp805
g12
ag12
asbsI55
(imap
Border
p806
(dp807
g10
(lp808
g12
ag12
asbsI56
(imap
Border
p809
(dp810
g10
(lp811
g12
ag12
asbsI57
(imap
Border
p812
(dp813
g10
(lp814
g12
ag12
asbsI93
(imap
Border
p815
(dp816
g10
(lp817
g12
ag12
asbsI94
(imap
Border
p818
(dp819
g10
(lp820
g12
ag12
asbsI95
(imap
Border
p821
(dp822
g10
(lp823
g12
ag12
asbsa(dp824
I98
(imap
Border
p825
(dp826
g10
(lp827
(iterritory
Territory
p828
(dp829
S'color'
p830
(F190.93152589944347
F42.18211143596037
F44.34281083065603
tp831
sS'units'
p832
I0
sS'name'
p833
S'Central America'
p834
sg10
(lp835
sS'player'
p836
(iterritory
Player
p837
(dp838
g830
(I255
I0
I0
tp839
sbsbag828
asbsI99
(imap
Border
p840
(dp841
g10
(lp842
g828
ag828
asbsI75
(imap
Border
p843
(dp844
g10
(lp845
g12
ag12
asbsI76
(imap
Border
p846
(dp847
g10
(lp848
g12
ag12
asbsI77
(imap
Border
p849
(dp850
g10
(lp851
g12
ag12
asbsI46
(imap
Border
p852
(dp853
g10
(lp854
g12
ag12
asbsa(dp855
a(dp856
I100
(imap
Border
p857
(dp858
g10
(lp859
g12
ag12
asbsI101
(imap
Border
p860
(dp861
g10
(lp862
g12
ag12
asbsa(dp863
I104
(imap
Border
p864
(dp865
g10
(lp866
g12
ag12
asbsI102
(imap
Border
p867
(dp868
g10
(lp869
g12
ag12
asbsI103
(imap
Border
p870
(dp871
g10
(lp872
g12
ag12
asbsa(dp873
I105
(imap
Border
p874
(dp875
g10
(lp876
g12
ag12
asbsI106
(imap
Border
p877
(dp878
g10
(lp879
g12
ag12
asbsI107
(imap
Border
p880
(dp881
g10
(lp882
g12
ag12
asbsI108
(imap
Border
p883
(dp884
g10
(lp885
g12
ag12
asbsI97
(imap
Border
p886
(dp887
g10
(lp888
g12
ag12
asbsa(dp889
a(dp890
a(dp891
I98
(imap
Border
p892
(dp893
g10
(lp894
g12
ag12
asbsI109
(imap
Border
p895
(dp896
g10
(lp897
g12
ag12
asbsI110
(imap
Border
p898
(dp899
g10
(lp900
g12
ag12
asbsI45
(imap
Border
p901
(dp902
g10
(lp903
g12
ag12
asbsa(dp904
a(dp905
I96
(imap
Border
p906
(dp907
g10
(lp908
g12
ag12
asbsI97
(imap
Border
p909
(dp910
g10
(lp911
g12
ag12
asbsI98
(imap
Border
p912
(dp913
g10
(lp914
g12
ag12
asbsI111
(imap
Border
p915
(dp916
g10
(lp917
g12
ag12
asbsa(dp918
I107
(imap
Border
p919
(dp920
g10
(lp921
g12
ag12
asbsI104
(imap
Border
p922
(dp923
g10
(lp924
g12
ag12
asbsI105
(imap
Border
p925
(dp926
g10
(lp927
g12
ag12
asbsI106
(imap
Border
p928
(dp929
g10
(lp930
g12
ag12
asbsI108
(imap
Border
p931
(dp932
g10
(lp933
g12
ag12
asbsI112
(imap
Border
p934
(dp935
g10
(lp936
g12
ag12
asbsI113
(imap
Border
p937
(dp938
g10
(lp939
g12
ag12
asbsI92
(imap
Border
p940
(dp941
g10
(lp942
g12
ag12
asbsI93
(imap
Border
p943
(dp944
g10
(lp945
g12
ag12
asbsI94
(imap
Border
p946
(dp947
g10
(lp948
g12
ag12
asbsI95
(imap
Border
p949
(dp950
g10
(lp951
g12
ag12
asbsa(dp952
I64
(imap
Border
p953
(dp954
g10
(lp955
g12
ag12
asbsI65
(imap
Border
p956
(dp957
g10
(lp958
g12
ag12
asbsI66
(imap
Border
p959
(dp960
g10
(lp961
g12
ag12
asbsI67
(imap
Border
p962
(dp963
g10
(lp964
g12
ag12
asbsI68
(imap
Border
p965
(dp966
g10
(lp967
g12
ag12
asbsI69
(imap
Border
p968
(dp969
g10
(lp970
g12
ag12
asbsI70
(imap
Border
p971
(dp972
g10
(lp973
g12
ag12
asbsI71
(imap
Border
p974
(dp975
g10
(lp976
g12
ag12
asbsI72
(imap
Border
p977
(dp978
g10
(lp979
g12
ag12
asbsI73
(imap
Border
p980
(dp981
g10
(lp982
g12
ag12
asbsI74
(imap
Border
p983
(dp984
g10
(lp985
g12
ag12
asbsI75
(imap
Border
p986
(dp987
g10
(lp988
g12
ag12
asbsI44
(imap
Border
p989
(dp990
g10
(lp991
g12
ag12
asbsI77
(imap
Border
p992
(dp993
g10
(lp994
g12
ag12
asbsI78
(imap
Border
p995
(dp996
g10
(lp997
g12
ag12
asbsI79
(imap
Border
p998
(dp999
g10
(lp1000
g12
ag12
asbsI80
(imap
Border
p1001
(dp1002
g10
(lp1003
g12
ag12
asbsI81
(imap
Border
p1004
(dp1005
g10
(lp1006
g12
ag12
asbsI76
(imap
Border
p1007
(dp1008
g10
(lp1009
g12
ag12
asbsa(dp1010
I99
(imap
Border
p1011
(dp1012
g10
(lp1013
g12
ag12
asbsI100
(imap
Border
p1014
(dp1015
g10
(lp1016
g828
ag12
asbsI101
(imap
Border
p1017
(dp1018
g10
(lp1019
g828
ag12
asbsI102
(imap
Border
p1020
(dp1021
g10
(lp1022
g828
ag12
asbsI103
(imap
Border
p1023
(dp1024
g10
(lp1025
g828
ag12
asbsI109
(imap
Border
p1026
(dp1027
g10
(lp1028
g828
ag12
asbsI90
(imap
Border
p1029
(dp1030
g10
(lp1031
g12
ag12
asbsI91
(imap
Border
p1032
(dp1033
g10
(lp1034
g12
ag12
asbsa(dp1035
I43
(imap
Border
p1036
(dp1037
g10
(lp1038
g12
ag12
asbsI108
(imap
Border
p1039
(dp1040
g10
(lp1041
g12
ag12
asbsI114
(imap
Border
p1042
(dp1043
g10
(lp1044
g12
ag12
asbsI109
(imap
Border
p1045
(dp1046
g10
(lp1047
g12
ag12
asbsI82
(imap
Border
p1048
(dp1049
g10
(lp1050
g12
ag12
asbsI83
(imap
Border
p1051
(dp1052
g10
(lp1053
g12
ag12
asbsI84
(imap
Border
p1054
(dp1055
g10
(lp1056
g12
ag12
asbsI85
(imap
Border
p1057
(dp1058
g10
(lp1059
g12
ag12
asbsI86
(imap
Border
p1060
(dp1061
g10
(lp1062
g12
ag12
asbsI87
(imap
Border
p1063
(dp1064
g10
(lp1065
g12
ag12
asbsI88
(imap
Border
p1066
(dp1067
g10
(lp1068
g12
ag12
asbsI89
(imap
Border
p1069
(dp1070
g10
(lp1071
g12
ag12
asbsa(dp1072
I98
(imap
Border
p1073
(dp1074
g10
(lp1075
g12
ag12
asbsI115
(imap
Border
p1076
(dp1077
g10
(lp1078
g12
ag12
asbsI116
(imap
Border
p1079
(dp1080
g10
(lp1081
g12
ag12
asbsI117
(imap
Border
p1082
(dp1083
g10
(lp1084
g12
ag12
asbsa(dp1085
a(dp1086
I96
(imap
Border
p1087
(dp1088
g10
(lp1089
g12
ag12
asbsI97
(imap
Border
p1090
(dp1091
g10
(lp1092
g12
ag12
asbsI108
(imap
Border
p1093
(dp1094
g10
(lp1095
g12
ag12
asbsI109
(imap
Border
p1096
(dp1097
g10
(lp1098
g12
ag12
asbsI110
(imap
Border
p1099
(dp1100
g10
(lp1101
g12
ag12
asbsI111
(imap
Border
p1102
(dp1103
g10
(lp1104
g12
ag12
asbsI112
(imap
Border
p1105
(dp1106
g10
(lp1107
g12
ag12
asbsI118
(imap
Border
p1108
(dp1109
g10
(lp1110
g12
ag12
asbsa(dp1111
I113
(imap
Border
p1112
(dp1113
g10
(lp1114
g12
ag12
asbsI114
(imap
Border
p1115
(dp1116
g10
(lp1117
g12
ag12
asbsI115
(imap
Border
p1118
(dp1119
g10
(lp1120
g12
ag12
asbsI116
(imap
Border
p1121
(dp1122
g10
(lp1123
g12
ag12
asbsa(dp1124
I128
(imap
Border
p1125
(dp1126
g10
(lp1127
g12
ag12
asbsI129
(imap
Border
p1128
(dp1129
g10
(lp1130
g12
ag12
asbsI130
(imap
Border
p1131
(dp1132
g10
(lp1133
g12
ag12
asbsI43
(imap
Border
p1134
(dp1135
g10
(lp1136
g12
ag12
asbsI119
(imap
Border
p1137
(dp1138
g10
(lp1139
g12
ag12
asbsI126
(imap
Border
p1140
(dp1141
g10
(lp1142
g12
ag12
asbsI127
(imap
Border
p1143
(dp1144
g10
(lp1145
g12
ag12
asbsa(dp1146
I64
(imap
Border
p1147
(dp1148
g10
(lp1149
g12
ag12
asbsI131
(imap
Border
p1150
(dp1151
g10
(lp1152
g12
ag12
asbsI132
(imap
Border
p1153
(dp1154
g10
(lp1155
g12
ag12
asbsI133
(imap
Border
p1156
(dp1157
g10
(lp1158
g12
ag12
asbsI63
(imap
Border
p1159
(dp1160
g10
(lp1161
g12
ag12
asbsI117
(imap
Border
p1162
(dp1163
g10
(lp1164
g12
ag12
asbsI54
(imap
Border
p1165
(dp1166
g10
(lp1167
g12
ag12
asbsI55
(imap
Border
p1168
(dp1169
g10
(lp1170
g12
ag12
asbsI56
(imap
Border
p1171
(dp1172
g10
(lp1173
g12
ag12
asbsI57
(imap
Border
p1174
(dp1175
g10
(lp1176
g12
ag12
asbsI58
(imap
Border
p1177
(dp1178
g10
(lp1179
g12
ag12
asbsI59
(imap
Border
p1180
(dp1181
g10
(lp1182
g12
ag12
asbsI60
(imap
Border
p1183
(dp1184
g10
(lp1185
g12
ag12
asbsI61
(imap
Border
p1186
(dp1187
g10
(lp1188
g12
ag12
asbsI62
(imap
Border
p1189
(dp1190
g10
(lp1191
g12
ag12
asbsI53
(imap
Border
p1192
(dp1193
g10
(lp1194
g12
ag12
asbsa(dp1195
I44
(imap
Border
p1196
(dp1197
g10
(lp1198
g12
ag12
asbsI45
(imap
Border
p1199
(dp1200
g10
(lp1201
g12
ag12
asbsI51
(imap
Border
p1202
(dp1203
g10
(lp1204
g12
ag12
asbsI52
(imap
Border
p1205
(dp1206
g10
(lp1207
g12
ag12
asbsI118
(imap
Border
p1208
(dp1209
g10
(lp1210
g12
ag12
asbsI123
(imap
Border
p1211
(dp1212
g10
(lp1213
g12
ag12
asbsI124
(imap
Border
p1214
(dp1215
g10
(lp1216
g12
ag12
asbsI125
(imap
Border
p1217
(dp1218
g10
(lp1219
g12
ag12
asbsa(dp1220
I96
(imap
Border
p1221
(dp1222
g10
(lp1223
g12
ag12
asbsI65
(imap
Border
p1224
(dp1225
g10
(lp1226
g12
ag12
asbsI134
(imap
Border
p1227
(dp1228
g10
(lp1229
g12
ag12
asbsI135
(imap
Border
p1230
(dp1231
g10
(lp1232
g12
ag12
asbsI46
(imap
Border
p1233
(dp1234
g10
(lp1235
g12
ag12
asbsI47
(imap
Border
p1236
(dp1237
g10
(lp1238
g12
ag12
asbsI48
(imap
Border
p1239
(dp1240
g10
(lp1241
g12
ag12
asbsI49
(imap
Border
p1242
(dp1243
g10
(lp1244
g12
ag12
asbsI50
(imap
Border
p1245
(dp1246
g10
(lp1247
g12
ag12
asbsI122
(imap
Border
p1248
(dp1249
g10
(lp1250
g12
ag12
asbsa(dp1251
I66
(imap
Border
p1252
(dp1253
g10
(lp1254
g12
ag12
asbsI82
(imap
Border
p1255
(dp1256
g10
(lp1257
g12
ag12
asbsI84
(imap
Border
p1258
(dp1259
g10
(lp1260
g12
ag12
asbsI119
(imap
Border
p1261
(dp1262
g10
(lp1263
g12
ag12
asbsI120
(imap
Border
p1264
(dp1265
g10
(lp1266
g12
ag12
asbsI121
(imap
Border
p1267
(dp1268
g10
(lp1269
g12
ag12
asbsa(dp1270
I97
(imap
Border
p1271
(dp1272
g10
(lp1273
g12
ag12
asbsI98
(imap
Border
p1274
(dp1275
g10
(lp1276
g12
ag12
asbsI99
(imap
Border
p1277
(dp1278
g10
(lp1279
g12
ag12
asbsI100
(imap
Border
p1280
(dp1281
g10
(lp1282
g12
ag12
asbsI137
(imap
Border
p1283
(dp1284
g10
(lp1285
g12
ag12
asbsI138
(imap
Border
p1286
(dp1287
g10
(lp1288
g12
ag12
asbsI139
(imap
Border
p1289
(dp1290
g10
(lp1291
g12
ag12
asbsI140
(imap
Border
p1292
(dp1293
g10
(lp1294
g12
ag12
asbsI141
(imap
Border
p1295
(dp1296
g10
(lp1297
g12
ag12
asbsI142
(imap
Border
p1298
(dp1299
g10
(lp1300
g12
a(iterritory
Territory
p1301
(dp1302
g830
(F72.60331283380972
F187.81497796604978
F34.93900248284265
tp1303
sg832
I0
sg833
S'Argentina'
p1304
sg10
(lp1305
sg836
(iterritory
Player
p1306
(dp1307
g830
(I255
I0
I0
tp1308
sbsbasbsI143
(imap
Border
p1309
(dp1310
g10
(lp1311
g12
ag1301
asbsI145
(imap
Border
p1312
(dp1313
g10
(lp1314
g12
ag1301
asbsI146
(imap
Border
p1315
(dp1316
g10
(lp1317
g12
ag1301
asbsI144
(imap
Border
p1318
(dp1319
g10
(lp1320
g12
ag1301
asbsI148
(imap
Border
p1321
(dp1322
g10
(lp1323
g12
ag1301
asbsI147
(imap
Border
p1324
(dp1325
g10
(lp1326
g12
ag1301
asbsI150
(imap
Border
p1327
(dp1328
g10
(lp1329
g12
ag1301
asbsI67
(imap
Border
p1330
(dp1331
g10
(lp1332
g12
ag12
asbsI149
(imap
Border
p1333
(dp1334
g10
(lp1335
g12
ag1301
asbsa(dp1336
I128
(imap
Border
p1337
(dp1338
g10
(lp1339
g12
ag12
asbsI129
(imap
Border
p1340
(dp1341
g10
(lp1342
g12
ag12
asbsI100
(imap
Border
p1343
(dp1344
g10
(lp1345
g12
aS'ocean'
p1346
asbsI126
(imap
Border
p1347
(dp1348
g10
(lp1349
g12
ag12
asbsI84
(imap
Border
p1350
(dp1351
g10
(lp1352
g12
ag1346
asbsI117
(imap
Border
p1353
(dp1354
g10
(lp1355
g12
ag12
asbsI118
(imap
Border
p1356
(dp1357
g10
(lp1358
g12
ag12
asbsI151
(imap
Border
p1359
(dp1360
g10
(lp1361
g1301
ag1301
asbsI152
(imap
Border
p1362
(dp1363
g10
(lp1364
g1301
ag1301
asbsI121
(imap
Border
p1365
(dp1366
g10
(lp1367
(iterritory
Territory
p1368
(dp1369
g830
(F62.09060127654231
F166.50248428306728
F25.528104224049464
tp1370
sg832
I0
sg833
S'Peru'
p1371
sg10
(lp1372
sg836
g1306
sba(iterritory
Territory
p1373
(dp1374
g830
(F50.789487330657856
F225.86269269433046
F7.580584000453442
tp1375
sg832
I0
sg833
S'Venezuela'
p1376
sg10
(lp1377
sg836
g1306
sbasbsI122
(imap
Border
p1378
(dp1379
g10
(lp1380
g1368
ag1373
asbsI123
(imap
Border
p1381
(dp1382
g10
(lp1383
g12
ag12
asbsI153
(imap
Border
p1384
(dp1385
g10
(lp1386
g1301
ag1301
asbsI127
(imap
Border
p1387
(dp1388
g10
(lp1389
g12
ag12
asbsa(dp1390
I98
(imap
Border
p1391
(dp1392
g10
(lp1393
g1346
ag1346
asbsI99
(imap
Border
p1394
(dp1395
g10
(lp1396
g1346
ag1346
asbsI68
(imap
Border
p1397
(dp1398
g10
(lp1399
g1346
ag1346
asbsI69
(imap
Border
p1400
(dp1401
g10
(lp1402
g1346
ag1346
asbsI124
(imap
Border
p1403
(dp1404
g10
(lp1405
g1368
a(iterritory
Territory
p1406
(dp1407
g830
(F30.160717021510884
F176.9784630887466
F16.91683130287076
tp1408
sg832
I0
sg833
S'Brazil'
p1409
sg10
(lp1410
sg836
g1306
sbasbsI116
(imap
Border
p1411
(dp1412
g10
(lp1413
g12
ag12
asbsI154
(imap
Border
p1414
(dp1415
g10
(lp1416
g12
ag12
asbsI155
(imap
Border
p1417
(dp1418
g10
(lp1419
g12
ag12
asbsI156
(imap
Border
p1420
(dp1421
g10
(lp1422
g12
ag12
asbsI125
(imap
Border
p1423
(dp1424
g10
(lp1425
g12
ag12
asbsa(dp1426
I160
(imap
Border
p1427
(dp1428
g10
(lp1429
g12
ag12
asbsI97
(imap
Border
p1430
(dp1431
g10
(lp1432
g1346
ag1346
asbsI130
(imap
Border
p1433
(dp1434
g10
(lp1435
g12
ag12
asbsI131
(imap
Border
p1436
(dp1437
g10
(lp1438
g12
ag12
asbsI68
(imap
Border
p1439
(dp1440
g10
(lp1441
g1346
ag1346
asbsI70
(imap
Border
p1442
(dp1443
g10
(lp1444
g1346
ag1346
asbsI71
(imap
Border
p1445
(dp1446
g10
(lp1447
g1346
ag1346
asbsI72
(imap
Border
p1448
(dp1449
g10
(lp1450
g1346
ag1346
asbsI96
(imap
Border
p1451
(dp1452
g10
(lp1453
g1346
ag1346
asbsI95
(imap
Border
p1454
(dp1455
g10
(lp1456
g1346
ag1346
asbsI83
(imap
Border
p1457
(dp1458
g10
(lp1459
g1346
ag1346
asbsI115
(imap
Border
p1460
(dp1461
g10
(lp1462
g12
ag12
asbsI123
(imap
Border
p1463
(dp1464
g10
(lp1465
g12
ag12
asbsI157
(imap
Border
p1466
(dp1467
g10
(lp1468
g12
ag12
asbsI158
(imap
Border
p1469
(dp1470
g10
(lp1471
g12
ag12
asbsI159
(imap
Border
p1472
(dp1473
g10
(lp1474
g12
ag12
asbsa(dp1475
I132
(imap
Border
p1476
(dp1477
g10
(lp1478
g12
ag12
asbsI133
(imap
Border
p1479
(dp1480
g10
(lp1481
g12
ag12
asbsI73
(imap
Border
p1482
(dp1483
g10
(lp1484
g1346
ag1346
asbsI74
(imap
Border
p1485
(dp1486
g10
(lp1487
g1346
ag1346
asbsI75
(imap
Border
p1488
(dp1489
g10
(lp1490
g1346
ag1346
asbsI76
(imap
Border
p1491
(dp1492
g10
(lp1493
g1346
ag1346
asbsI77
(imap
Border
p1494
(dp1495
g10
(lp1496
g1346
ag1346
asbsI78
(imap
Border
p1497
(dp1498
g10
(lp1499
g1346
ag1346
asbsI79
(imap
Border
p1500
(dp1501
g10
(lp1502
g1346
ag1346
asbsI80
(imap
Border
p1503
(dp1504
g10
(lp1505
g1346
ag1346
asbsI81
(imap
Border
p1506
(dp1507
g10
(lp1508
g1346
ag1346
asbsI114
(imap
Border
p1509
(dp1510
g10
(lp1511
g12
ag12
asbsI82
(imap
Border
p1512
(dp1513
g10
(lp1514
g1346
ag1346
asbsI68
(imap
Border
p1515
(dp1516
g10
(lp1517
g1346
ag1346
asbsI93
(imap
Border
p1518
(dp1519
g10
(lp1520
g1346
ag1346
asbsI94
(imap
Border
p1521
(dp1522
g10
(lp1523
g1346
ag1346
asbsa(dp1524
I160
(imap
Border
p1525
(dp1526
g10
(lp1527
g12
ag12
asbsI65
(imap
Border
p1528
(dp1529
g10
(lp1530
g1346
ag12
asbsI66
(imap
Border
p1531
(dp1532
g10
(lp1533
g1346
ag12
asbsI67
(imap
Border
p1534
(dp1535
g10
(lp1536
g1346
ag12
asbsI138
(imap
Border
p1537
(dp1538
g10
(lp1539
g12
ag12
asbsI81
(imap
Border
p1540
(dp1541
g10
(lp1542
g1346
ag12
asbsI90
(imap
Border
p1543
(dp1544
g10
(lp1545
g1346
ag12
asbsI89
(imap
Border
p1546
(dp1547
g10
(lp1548
g1346
ag12
asbsI122
(imap
Border
p1549
(dp1550
g10
(lp1551
g12
ag12
asbsI91
(imap
Border
p1552
(dp1553
g10
(lp1554
g1346
ag12
asbsI92
(imap
Border
p1555
(dp1556
g10
(lp1557
g1346
ag12
asbsI157
(imap
Border
p1558
(dp1559
g10
(lp1560
g12
ag12
asbsI158
(imap
Border
p1561
(dp1562
g10
(lp1563
g12
ag12
asbsI159
(imap
Border
p1564
(dp1565
g10
(lp1566
g12
ag12
asbsa(dp1567
I64
(imap
Border
p1568
(dp1569
g10
(lp1570
g12
ag12
asbsI134
(imap
Border
p1571
(dp1572
g10
(lp1573
g12
ag12
asbsI87
(imap
Border
p1574
(dp1575
g10
(lp1576
g12
ag12
asbsI88
(imap
Border
p1577
(dp1578
g10
(lp1579
g12
ag12
asbsI154
(imap
Border
p1580
(dp1581
g10
(lp1582
g12
ag12
asbsI155
(imap
Border
p1583
(dp1584
g10
(lp1585
g12
ag12
asbsI63
(imap
Border
p1586
(dp1587
g10
(lp1588
g12
ag12
asbsa(dp1589
I135
(imap
Border
p1590
(dp1591
g10
(lp1592
g12
ag12
asbsI136
(imap
Border
p1593
(dp1594
g10
(lp1595
g12
ag12
asbsI137
(imap
Border
p1596
(dp1597
g10
(lp1598
g12
ag12
asbsI138
(imap
Border
p1599
(dp1600
g10
(lp1601
g12
ag12
asbsI139
(imap
Border
p1602
(dp1603
g10
(lp1604
g12
ag12
asbsI114
(imap
Border
p1605
(dp1606
g10
(lp1607
g12
ag12
asbsI86
(imap
Border
p1608
(dp1609
g10
(lp1610
g12
ag12
asbsI153
(imap
Border
p1611
(dp1612
g10
(lp1613
g12
ag12
asbsI121
(imap
Border
p1614
(dp1615
g10
(lp1616
g12
ag12
asbsI62
(imap
Border
p1617
(dp1618
g10
(lp1619
g12
ag12
asbsa(dp1620
I115
(imap
Border
p1621
(dp1622
g10
(lp1623
g12
ag12
asbsI140
(imap
Border
p1624
(dp1625
g10
(lp1626
g12
ag12
asbsI79
(imap
Border
p1627
(dp1628
g10
(lp1629
g12
ag12
asbsI80
(imap
Border
p1630
(dp1631
g10
(lp1632
g12
ag12
asbsI81
(imap
Border
p1633
(dp1634
g10
(lp1635
g12
ag12
asbsI82
(imap
Border
p1636
(dp1637
g10
(lp1638
g12
ag12
asbsI83
(imap
Border
p1639
(dp1640
g10
(lp1641
g12
ag12
asbsI84
(imap
Border
p1642
(dp1643
g10
(lp1644
g12
ag12
asbsI85
(imap
Border
p1645
(dp1646
g10
(lp1647
g12
ag12
asbsI152
(imap
Border
p1648
(dp1649
g10
(lp1650
g12
ag12
asbsI59
(imap
Border
p1651
(dp1652
g10
(lp1653
g12
ag12
asbsI60
(imap
Border
p1654
(dp1655
g10
(lp1656
g12
ag12
asbsI61
(imap
Border
p1657
(dp1658
g10
(lp1659
g12
ag12
asbsa(dp1660
I77
(imap
Border
p1661
(dp1662
g10
(lp1663
g12
ag12
asbsI78
(imap
Border
p1664
(dp1665
g10
(lp1666
g12
ag12
asbsI141
(imap
Border
p1667
(dp1668
g10
(lp1669
g12
ag12
asbsI116
(imap
Border
p1670
(dp1671
g10
(lp1672
g12
ag12
asbsI151
(imap
Border
p1673
(dp1674
g10
(lp1675
g12
ag12
asbsI57
(imap
Border
p1676
(dp1677
g10
(lp1678
g12
ag12
asbsI58
(imap
Border
p1679
(dp1680
g10
(lp1681
g12
ag12
asbsa(dp1682
I150
(imap
Border
p1683
(dp1684
g10
(lp1685
g12
ag12
asbsI76
(imap
Border
p1686
(dp1687
g10
(lp1688
g12
ag1346
asbsI117
(imap
Border
p1689
(dp1690
g10
(lp1691
g12
ag12
asbsI118
(imap
Border
p1692
(dp1693
g10
(lp1694
g12
ag12
asbsI120
(imap
Border
p1695
(dp1696
g10
(lp1697
g1373
ag1373
asbsI149
(imap
Border
p1698
(dp1699
g10
(lp1700
g12
ag12
asbsa(dp1701
I74
(imap
Border
p1702
(dp1703
g10
(lp1704
g1346
ag1346
asbsI75
(imap
Border
p1705
(dp1706
g10
(lp1707
g1346
ag1346
asbsI142
(imap
Border
p1708
(dp1709
g10
(lp1710
g12
ag12
asbsI147
(imap
Border
p1711
(dp1712
g10
(lp1713
g12
ag12
asbsI148
(imap
Border
p1714
(dp1715
g10
(lp1716
g12
ag12
asbsI119
(imap
Border
p1717
(dp1718
g10
(lp1719
g12
ag12
asbsa(dp1720
I56
(imap
Border
p1721
(dp1722
g10
(lp1723
g1346
ag1346
asbsI145
(imap
Border
p1724
(dp1725
g10
(lp1726
g12
ag12
asbsI146
(imap
Border
p1727
(dp1728
g10
(lp1729
g12
ag12
asbsI73
(imap
Border
p1730
(dp1731
g10
(lp1732
g1346
ag1346
asbsa(dp1733
I72
(imap
Border
p1734
(dp1735
g10
(lp1736
g1346
ag1346
asbsI143
(imap
Border
p1737
(dp1738
g10
(lp1739
g12
ag12
asbsI144
(imap
Border
p1740
(dp1741
g10
(lp1742
g12
ag12
asbsI56
(imap
Border
p1743
(dp1744
g10
(lp1745
g1346
ag1346
asbsI57
(imap
Border
p1746
(dp1747
g10
(lp1748
g1346
ag1346
asbsa(dp1749
I119
(imap
Border
p1750
(dp1751
g10
(lp1752
g12
ag12
asbsI142
(imap
Border
p1753
(dp1754
g10
(lp1755
g12
ag12
asbsI118
(imap
Border
p1756
(dp1757
g10
(lp1758
g12
ag12
asbsI58
(imap
Border
p1759
(dp1760
g10
(lp1761
g1346
ag1346
asbsI59
(imap
Border
p1762
(dp1763
g10
(lp1764
g1346
ag1346
asbsI60
(imap
Border
p1765
(dp1766
g10
(lp1767
g1346
ag1346
asbsa(dp1768
I71
(imap
Border
p1769
(dp1770
g10
(lp1771
g1346
ag12
asbsI140
(imap
Border
p1772
(dp1773
g10
(lp1774
g12
ag12
asbsI141
(imap
Border
p1775
(dp1776
g10
(lp1777
g12
ag12
asbsI61
(imap
Border
p1778
(dp1779
g10
(lp1780
g1346
ag12
asbsI62
(imap
Border
p1781
(dp1782
g10
(lp1783
g1346
ag12
asbsa(dp1784
I64
(imap
Border
p1785
(dp1786
g10
(lp1787
g12
ag12
asbsI65
(imap
Border
p1788
(dp1789
g10
(lp1790
g12
ag12
asbsI66
(imap
Border
p1791
(dp1792
g10
(lp1793
g12
ag12
asbsI67
(imap
Border
p1794
(dp1795
g10
(lp1796
g12
ag12
asbsI68
(imap
Border
p1797
(dp1798
g10
(lp1799
g12
ag12
asbsI69
(imap
Border
p1800
(dp1801
g10
(lp1802
g12
ag12
asbsI70
(imap
Border
p1803
(dp1804
g10
(lp1805
g12
ag12
asbsI139
(imap
Border
p1806
(dp1807
g10
(lp1808
g12
ag12
asbsI63
(imap
Border
p1809
(dp1810
g10
(lp1811
g12
ag12
asbsa(dp1812
I138
(imap
Border
p1813
(dp1814
g10
(lp1815
g12
ag12
asbsI24
(imap
Border
p1816
(dp1817
g10
(lp1818
g12
ag1346
asbsI18
(imap
Border
p1819
(dp1820
g10
(lp1821
g12
ag1346
asbsI19
(imap
Border
p1822
(dp1823
g10
(lp1824
g12
ag1346
asbsI20
(imap
Border
p1825
(dp1826
g10
(lp1827
g12
ag1346
asbsI21
(imap
Border
p1828
(dp1829
g10
(lp1830
g12
ag1346
asbsI22
(imap
Border
p1831
(dp1832
g10
(lp1833
g12
ag1346
asbsI23
(imap
Border
p1834
(dp1835
g10
(lp1836
g12
ag1346
asbsI120
(imap
Border
p1837
(dp1838
g10
(lp1839
g12
ag12
asbsI25
(imap
Border
p1840
(dp1841
g10
(lp1842
g12
ag1346
asbsI26
(imap
Border
p1843
(dp1844
g10
(lp1845
g12
ag1346
asbsI27
(imap
Border
p1846
(dp1847
g10
(lp1848
g12
ag1346
asbsa(dp1849
I136
(imap
Border
p1850
(dp1851
g10
(lp1852
g12
ag12
asbsI137
(imap
Border
p1853
(dp1854
g10
(lp1855
g12
ag12
asbsI17
(imap
Border
p1856
(dp1857
g10
(lp1858
g1346
ag12
asbsI121
(imap
Border
p1859
(dp1860
g10
(lp1861
g12
ag12
asbsI27
(imap
Border
p1862
(dp1863
g10
(lp1864
g1346
ag12
asbsa(dp1865
I134
(imap
Border
p1866
(dp1867
g10
(lp1868
g12
ag12
asbsI135
(imap
Border
p1869
(dp1870
g10
(lp1871
g12
ag12
asbsI16
(imap
Border
p1872
(dp1873
g10
(lp1874
g12
ag12
asbsI122
(imap
Border
p1875
(dp1876
g10
(lp1877
g12
ag12
asbsI123
(imap
Border
p1878
(dp1879
g10
(lp1880
g12
ag12
asbsI29
(imap
Border
p1881
(dp1882
g10
(lp1883
g12
ag12
asbsI30
(imap
Border
p1884
(dp1885
g10
(lp1886
g12
ag12
asbsI31
(imap
Border
p1887
(dp1888
g10
(lp1889
g12
ag12
asbsa(dp1890
I133
(imap
Border
p1891
(dp1892
g10
(lp1893
g12
ag12
asbsa(dp1894
I128
(imap
Border
p1895
(dp1896
g10
(lp1897
g12
ag12
asbsI129
(imap
Border
p1898
(dp1899
g10
(lp1900
g12
ag12
asbsI130
(imap
Border
p1901
(dp1902
g10
(lp1903
g12
ag12
asbsI131
(imap
Border
p1904
(dp1905
g10
(lp1906
g12
ag12
asbsI132
(imap
Border
p1907
(dp1908
g10
(lp1909
g12
ag12
asbsI34
(imap
Border
p1910
(dp1911
g10
(lp1912
g12
ag12
asbsI14
(imap
Border
p1913
(dp1914
g10
(lp1915
g12
ag12
asbsI15
(imap
Border
p1916
(dp1917
g10
(lp1918
g12
ag12
asbsI35
(imap
Border
p1919
(dp1920
g10
(lp1921
g12
ag12
asbsI124
(imap
Border
p1922
(dp1923
g10
(lp1924
g12
ag12
asbsa(dp1925
I36
(imap
Border
p1926
(dp1927
g10
(lp1928
g12
ag12
asbsI37
(imap
Border
p1929
(dp1930
g10
(lp1931
g12
ag12
asbsI38
(imap
Border
p1932
(dp1933
g10
(lp1934
g12
ag12
asbsI125
(imap
Border
p1935
(dp1936
g10
(lp1937
g12
ag12
asbsI126
(imap
Border
p1938
(dp1939
g10
(lp1940
g12
ag12
asbsI127
(imap
Border
p1941
(dp1942
g10
(lp1943
g12
ag12
asbsa(dp1944
I39
(imap
Border
p1945
(dp1946
g10
(lp1947
g12
ag12
asbsa(dp1948
I40
(imap
Border
p1949
(dp1950
g10
(lp1951
g12
ag12
asbsI41
(imap
Border
p1952
(dp1953
g10
(lp1954
g12
ag12
asbsI42
(imap
Border
p1955
(dp1956
g10
(lp1957
g12
ag12
asbsI43
(imap
Border
p1958
(dp1959
g10
(lp1960
g12
ag12
asbsI44
(imap
Border
p1961
(dp1962
g10
(lp1963
g12
ag12
asbsI45
(imap
Border
p1964
(dp1965
g10
(lp1966
g12
ag12
asbsI46
(imap
Border
p1967
(dp1968
g10
(lp1969
g12
ag12
asbsI47
(imap
Border
p1970
(dp1971
g10
(lp1972
g12
ag12
asbsI48
(imap
Border
p1973
(dp1974
g10
(lp1975
g12
ag12
asbsa(dp1976
a(dp1977
I49
(imap
Border
p1978
(dp1979
g10
(lp1980
g12
ag12
asbsa(dp1981
a(dp1982
a(dp1983
I49
(imap
Border
p1984
(dp1985
g10
(lp1986
g12
ag12
asbsa(dp1987
I40
(imap
Border
p1988
(dp1989
g10
(lp1990
g12
ag12
asbsI41
(imap
Border
p1991
(dp1992
g10
(lp1993
g12
ag12
asbsI42
(imap
Border
p1994
(dp1995
g10
(lp1996
g12
ag12
asbsI43
(imap
Border
p1997
(dp1998
g10
(lp1999
g12
ag12
asbsI44
(imap
Border
p2000
(dp2001
g10
(lp2002
g12
ag12
asbsI45
(imap
Border
p2003
(dp2004
g10
(lp2005
g12
ag12
asbsI46
(imap
Border
p2006
(dp2007
g10
(lp2008
g12
ag12
asbsI47
(imap
Border
p2009
(dp2010
g10
(lp2011
g12
ag12
asbsI48
(imap
Border
p2012
(dp2013
g10
(lp2014
g12
ag12
asbsa(dp2015
a(dp2016
I39
(imap
Border
p2017
(dp2018
g10
(lp2019
g12
ag12
asbsa(dp2020
I38
(imap
Border
p2021
(dp2022
g10
(lp2023
g12
ag12
asbsa(dp2024
I37
(imap
Border
p2025
(dp2026
g10
(lp2027
g12
ag12
asbsa(dp2028
I36
(imap
Border
p2029
(dp2030
g10
(lp2031
g12
ag12
asbsa(dp2032
I35
(imap
Border
p2033
(dp2034
g10
(lp2035
g12
ag12
asbsa(dp2036
I32
(imap
Border
p2037
(dp2038
g10
(lp2039
g12
ag12
asbsI33
(imap
Border
p2040
(dp2041
g10
(lp2042
g12
ag12
asbsI34
(imap
Border
p2043
(dp2044
g10
(lp2045
g12
ag12
asbsI30
(imap
Border
p2046
(dp2047
g10
(lp2048
g12
ag12
asbsI31
(imap
Border
p2049
(dp2050
g10
(lp2051
g12
ag12
asbsa(dp2052
I29
(imap
Border
p2053
(dp2054
g10
(lp2055
g12
ag12
asbsI14
(imap
Border
p2056
(dp2057
g10
(lp2058
g12
ag12
asbsa(dp2059
I27
(imap
Border
p2060
(dp2061
g10
(lp2062
g12
ag12
asbsI28
(imap
Border
p2063
(dp2064
g10
(lp2065
g12
ag12
asbsa(dp2066
I15
(imap
Border
p2067
(dp2068
g10
(lp2069
g12
ag12
asbsI16
(imap
Border
p2070
(dp2071
g10
(lp2072
g12
ag12
asbsI22
(imap
Border
p2073
(dp2074
g10
(lp2075
g12
ag12
asbsI23
(imap
Border
p2076
(dp2077
g10
(lp2078
g12
ag12
asbsI24
(imap
Border
p2079
(dp2080
g10
(lp2081
g12
ag12
asbsI25
(imap
Border
p2082
(dp2083
g10
(lp2084
g12
ag12
asbsI26
(imap
Border
p2085
(dp2086
g10
(lp2087
g12
ag12
asbsa(dp2088
I17
(imap
Border
p2089
(dp2090
g10
(lp2091
g12
ag12
asbsI18
(imap
Border
p2092
(dp2093
g10
(lp2094
g12
ag12
asbsI19
(imap
Border
p2095
(dp2096
g10
(lp2097
g12
ag12
asbsa(dp2098
I20
(imap
Border
p2099
(dp2100
g10
(lp2101
g12
ag12
asbsI21
(imap
Border
p2102
(dp2103
g10
(lp2104
g12
ag12
asbsa(dp2105
a(dp2106
a(dp2107
a(dp2108
a(dp2109
a(dp2110
a(dp2111
a(dp2112
I43
(imap
Border
p2113
(dp2114
g10
(lp2115
g12
ag12
asbsI44
(imap
Border
p2116
(dp2117
g10
(lp2118
g12
ag12
asbsa(dp2119
I42
(imap
Border
p2120
(dp2121
g10
(lp2122
g12
ag12
asbsI45
(imap
Border
p2123
(dp2124
g10
(lp2125
g12
ag12
asbsI46
(imap
Border
p2126
(dp2127
g10
(lp2128
g12
ag12
asbsa(dp2129
I41
(imap
Border
p2130
(dp2131
g10
(lp2132
g12
ag12
asbsa(dp2133
I40
(imap
Border
p2134
(dp2135
g10
(lp2136
g12
ag12
asbsI47
(imap
Border
p2137
(dp2138
g10
(lp2139
g12
ag12
asbsa(dp2140
a(dp2141
a(dp2142
a(dp2143
a(dp2144
I40
(imap
Border
p2145
(dp2146
g10
(lp2147
g12
ag12
asbsI41
(imap
Border
p2148
(dp2149
g10
(lp2150
g12
ag12
asbsI45
(imap
Border
p2151
(dp2152
g10
(lp2153
g12
ag12
asbsI46
(imap
Border
p2154
(dp2155
g10
(lp2156
g12
ag12
asbsI47
(imap
Border
p2157
(dp2158
g10
(lp2159
g12
ag12
asbsI57
(imap
Border
p2160
(dp2161
g10
(lp2162
g12
ag12
asbsI58
(imap
Border
p2163
(dp2164
g10
(lp2165
g12
ag12
asbsI59
(imap
Border
p2166
(dp2167
g10
(lp2168
g12
ag12
asbsa(dp2169
I60
(imap
Border
p2170
(dp2171
g10
(lp2172
g12
ag12
asbsI42
(imap
Border
p2173
(dp2174
g10
(lp2175
g12
ag12
asbsI43
(imap
Border
p2176
(dp2177
g10
(lp2178
g12
ag12
asbsI44
(imap
Border
p2179
(dp2180
g10
(lp2181
g12
ag12
asbsa(dp2182
I61
(imap
Border
p2183
(dp2184
g10
(lp2185
g12
ag12
asbsa(dp2186
I61
(imap
Border
p2187
(dp2188
g10
(lp2189
g12
ag12
asbsa(dp2190
I57
(imap
Border
p2191
(dp2192
g10
(lp2193
g12
ag12
asbsI58
(imap
Border
p2194
(dp2195
g10
(lp2196
g12
ag12
asbsI59
(imap
Border
p2197
(dp2198
g10
(lp2199
g12
ag12
asbsI60
(imap
Border
p2200
(dp2201
g10
(lp2202
g12
ag12
asbsa(dp2203
a(dp2204
I62
(imap
Border
p2205
(dp2206
g10
(lp2207
g12
ag12
asbsa(dp2208
I59
(imap
Border
p2209
(dp2210
g10
(lp2211
g12
ag12
asbsI60
(imap
Border
p2212
(dp2213
g10
(lp2214
g12
ag12
asbsI61
(imap
Border
p2215
(dp2216
g10
(lp2217
g12
ag12
asbsa(dp2218
I50
(imap
Border
p2219
(dp2220
g10
(lp2221
g12
ag12
asbsI51
(imap
Border
p2222
(dp2223
g10
(lp2224
g12
ag12
asbsI52
(imap
Border
p2225
(dp2226
g10
(lp2227
g12
ag12
asbsI53
(imap
Border
p2228
(dp2229
g10
(lp2230
g12
ag12
asbsI54
(imap
Border
p2231
(dp2232
g10
(lp2233
g12
ag12
asbsI55
(imap
Border
p2234
(dp2235
g10
(lp2236
g12
ag12
asbsI56
(imap
Border
p2237
(dp2238
g10
(lp2239
g12
ag12
asbsI57
(imap
Border
p2240
(dp2241
g10
(lp2242
g12
ag12
asbsI58
(imap
Border
p2243
(dp2244
g10
(lp2245
g12
ag12
asbsa(dp2246
a(dp2247
I50
(imap
Border
p2248
(dp2249
g10
(lp2250
g12
ag12
asbsa(dp2251
I51
(imap
Border
p2252
(dp2253
g10
(lp2254
g12
ag12
asbsI52
(imap
Border
p2255
(dp2256
g10
(lp2257
g12
ag12
asbsI62
(imap
Border
p2258
(dp2259
g10
(lp2260
g12
ag12
asbsa(dp2261
I53
(imap
Border
p2262
(dp2263
g10
(lp2264
g12
ag12
asbsa(dp2265
I56
(imap
Border
p2266
(dp2267
g10
(lp2268
g12
ag12
asbsI60
(imap
Border
p2269
(dp2270
g10
(lp2271
g12
ag12
asbsI61
(imap
Border
p2272
(dp2273
g10
(lp2274
g12
ag12
asbsI54
(imap
Border
p2275
(dp2276
g10
(lp2277
g12
ag12
asbsI55
(imap
Border
p2278
(dp2279
g10
(lp2280
g12
ag12
asbsa(dp2281
I57
(imap
Border
p2282
(dp2283
g10
(lp2284
g12
ag12
asbsI58
(imap
Border
p2285
(dp2286
g10
(lp2287
g12
ag12
asbsI59
(imap
Border
p2288
(dp2289
g10
(lp2290
g12
ag12
asbsa(dp2291
a(dp2292
a(dp2293
a(dp2294
a(dp2295
a(dp2296
a(dp2297
a(dp2298
a(dp2299
a(dp2300
a(dp2301
a(dp2302
a(dp2303
a(dp2304
a(dp2305
a(dp2306
a(dp2307
a(dp2308
a(dp2309
a(dp2310
a(dp2311
a(dp2312
a(dp2313
a(dp2314
a(dp2315
a(dp2316
a(dp2317
a(dp2318
a(dp2319
a(dp2320
a(dp2321
a(dp2322
a(dp2323
a(dp2324
a(dp2325
a(dp2326
a(dp2327
a(dp2328
a(dp2329
a(dp2330
a(dp2331
a(dp2332
a(dp2333
a(dp2334
a(dp2335
a(dp2336
a(dp2337
a(dp2338
a(dp2339
a(dp2340
a(dp2341
a(dp2342
a(dp2343
a(dp2344
a(dp2345
a(dp2346
a(dp2347
a(dp2348
a(dp2349
a(dp2350
a(dp2351
a(dp2352
a(dp2353
a(dp2354
a(dp2355
a(dp2356
a(dp2357
a(dp2358
a(dp2359
a(dp2360
a(dp2361
a(dp2362
a(dp2363
a(dp2364
a(dp2365
a(dp2366
a(dp2367
a(dp2368
a(dp2369
a(dp2370
a(dp2371
a(dp2372
a(dp2373
a(dp2374
a(dp2375
a(dp2376
a(dp2377
a(dp2378
I0
(imap
Border
p2379
(dp2380
g10
(lp2381
g12
aNasbsI1
(imap
Border
p2382
(dp2383
g10
(lp2384
g12
aNasbsI2
(imap
Border
p2385
(dp2386
g10
(lp2387
g12
aNasbsI3
(imap
Border
p2388
(dp2389
g10
(lp2390
g12
aNasbsI4
(imap
Border
p2391
(dp2392
g10
(lp2393
g12
aNasbsI5
(imap
Border
p2394
(dp2395
g10
(lp2396
g12
aNasbsI6
(imap
Border
p2397
(dp2398
g10
(lp2399
g12
aNasbsI7
(imap
Border
p2400
(dp2401
g10
(lp2402
g12
aNasbsI8
(imap
Border
p2403
(dp2404
g10
(lp2405
g12
aNasbsI9
(imap
Border
p2406
(dp2407
g10
(lp2408
g12
aNasbsI10
(imap
Border
p2409
(dp2410
g10
(lp2411
g12
aNasbsI11
(imap
Border
p2412
(dp2413
g10
(lp2414
g12
aNasbsI12
(imap
Border
p2415
(dp2416
g10
(lp2417
g12
aNasbsI13
(imap
Border
p2418
(dp2419
g10
(lp2420
g12
aNasbsI14
(imap
Border
p2421
(dp2422
g10
(lp2423
g12
aNasbsI15
(imap
Border
p2424
(dp2425
g10
(lp2426
g12
aNasbsI16
(imap
Border
p2427
(dp2428
g10
(lp2429
g12
aNasbsI17
(imap
Border
p2430
(dp2431
g10
(lp2432
g12
aNasbsI18
(imap
Border
p2433
(dp2434
g10
(lp2435
g12
aNasbsI19
(imap
Border
p2436
(dp2437
g10
(lp2438
g12
aNasbsI20
(imap
Border
p2439
(dp2440
g10
(lp2441
g12
aNasbsI21
(imap
Border
p2442
(dp2443
g10
(lp2444
g12
aNasbsI22
(imap
Border
p2445
(dp2446
g10
(lp2447
g12
aNasbsI23
(imap
Border
p2448
(dp2449
g10
(lp2450
g12
aNasbsI24
(imap
Border
p2451
(dp2452
g10
(lp2453
g12
aNasbsI25
(imap
Border
p2454
(dp2455
g10
(lp2456
g12
aNasbsI26
(imap
Border
p2457
(dp2458
g10
(lp2459
g12
aNasbsI27
(imap
Border
p2460
(dp2461
g10
(lp2462
g12
aNasbsI28
(imap
Border
p2463
(dp2464
g10
(lp2465
g12
aNasbsI29
(imap
Border
p2466
(dp2467
g10
(lp2468
g12
aNasbsI30
(imap
Border
p2469
(dp2470
g10
(lp2471
g12
aNasbsI31
(imap
Border
p2472
(dp2473
g10
(lp2474
g12
aNasbsI32
(imap
Border
p2475
(dp2476
g10
(lp2477
g12
aNasbsI33
(imap
Border
p2478
(dp2479
g10
(lp2480
g12
aNasbsI34
(imap
Border
p2481
(dp2482
g10
(lp2483
g12
aNasbsI35
(imap
Border
p2484
(dp2485
g10
(lp2486
g12
aNasbsI36
(imap
Border
p2487
(dp2488
g10
(lp2489
g12
aNasbsI37
(imap
Border
p2490
(dp2491
g10
(lp2492
g12
aNasbsI38
(imap
Border
p2493
(dp2494
g10
(lp2495
g12
aNasbsI39
(imap
Border
p2496
(dp2497
g10
(lp2498
g12
aNasbsI40
(imap
Border
p2499
(dp2500
g10
(lp2501
g12
aNasbsI41
(imap
Border
p2502
(dp2503
g10
(lp2504
g12
aNasbsI42
(imap
Border
p2505
(dp2506
g10
(lp2507
g12
aNasbsI43
(imap
Border
p2508
(dp2509
g10
(lp2510
g12
aNasbsI44
(imap
Border
p2511
(dp2512
g10
(lp2513
g12
aNasbsI45
(imap
Border
p2514
(dp2515
g10
(lp2516
g12
aNasbsI46
(imap
Border
p2517
(dp2518
g10
(lp2519
g12
aNasbsI47
(imap
Border
p2520
(dp2521
g10
(lp2522
g12
aNasbsI48
(imap
Border
p2523
(dp2524
g10
(lp2525
g12
aNasbsI49
(imap
Border
p2526
(dp2527
g10
(lp2528
g12
aNasbsI50
(imap
Border
p2529
(dp2530
g10
(lp2531
g12
aNasbsI51
(imap
Border
p2532
(dp2533
g10
(lp2534
g12
aNasbsI52
(imap
Border
p2535
(dp2536
g10
(lp2537
g12
aNasbsI53
(imap
Border
p2538
(dp2539
g10
(lp2540
g12
aNasbsI54
(imap
Border
p2541
(dp2542
g10
(lp2543
g12
aNasbsI55
(imap
Border
p2544
(dp2545
g10
(lp2546
g12
aNasbsI56
(imap
Border
p2547
(dp2548
g10
(lp2549
g12
aNasbsI57
(imap
Border
p2550
(dp2551
g10
(lp2552
g12
aNasbsI58
(imap
Border
p2553
(dp2554
g10
(lp2555
g12
aNasbsI59
(imap
Border
p2556
(dp2557
g10
(lp2558
g12
aNasbsI60
(imap
Border
p2559
(dp2560
g10
(lp2561
g12
aNasbsI61
(imap
Border
p2562
(dp2563
g10
(lp2564
g12
aNasbsI62
(imap
Border
p2565
(dp2566
g10
(lp2567
g12
aNasbsI63
(imap
Border
p2568
(dp2569
g10
(lp2570
g12
aNasbsI64
(imap
Border
p2571
(dp2572
g10
(lp2573
g12
aNasbsI65
(imap
Border
p2574
(dp2575
g10
(lp2576
g12
aNasbsI66
(imap
Border
p2577
(dp2578
g10
(lp2579
g12
aNasbsI67
(imap
Border
p2580
(dp2581
g10
(lp2582
g12
aNasbsI68
(imap
Border
p2583
(dp2584
g10
(lp2585
g12
aNasbsI69
(imap
Border
p2586
(dp2587
g10
(lp2588
g12
aNasbsI70
(imap
Border
p2589
(dp2590
g10
(lp2591
g12
aNasbsI71
(imap
Border
p2592
(dp2593
g10
(lp2594
g12
aNasbsI72
(imap
Border
p2595
(dp2596
g10
(lp2597
g12
aNasbsI73
(imap
Border
p2598
(dp2599
g10
(lp2600
g12
aNasbsI74
(imap
Border
p2601
(dp2602
g10
(lp2603
g12
aNasbsI75
(imap
Border
p2604
(dp2605
g10
(lp2606
g12
aNasbsI76
(imap
Border
p2607
(dp2608
g10
(lp2609
g12
aNasbsI77
(imap
Border
p2610
(dp2611
g10
(lp2612
g12
aNasbsI78
(imap
Border
p2613
(dp2614
g10
(lp2615
g12
aNasbsI79
(imap
Border
p2616
(dp2617
g10
(lp2618
g12
aNasbsI80
(imap
Border
p2619
(dp2620
g10
(lp2621
g12
aNasbsI81
(imap
Border
p2622
(dp2623
g10
(lp2624
g12
aNasbsI82
(imap
Border
p2625
(dp2626
g10
(lp2627
g12
aNasbsI83
(imap
Border
p2628
(dp2629
g10
(lp2630
g12
aNasbsI84
(imap
Border
p2631
(dp2632
g10
(lp2633
g12
aNasbsI85
(imap
Border
p2634
(dp2635
g10
(lp2636
g12
aNasbsI86
(imap
Border
p2637
(dp2638
g10
(lp2639
g12
aNasbsI87
(imap
Border
p2640
(dp2641
g10
(lp2642
g12
aNasbsI88
(imap
Border
p2643
(dp2644
g10
(lp2645
g12
aNasbsI89
(imap
Border
p2646
(dp2647
g10
(lp2648
g12
aNasbsI90
(imap
Border
p2649
(dp2650
g10
(lp2651
g12
aNasbsI91
(imap
Border
p2652
(dp2653
g10
(lp2654
g12
aNasbsI92
(imap
Border
p2655
(dp2656
g10
(lp2657
g12
aNasbsI93
(imap
Border
p2658
(dp2659
g10
(lp2660
g12
aNasbsI94
(imap
Border
p2661
(dp2662
g10
(lp2663
g12
aNasbsI95
(imap
Border
p2664
(dp2665
g10
(lp2666
g12
aNasbsI96
(imap
Border
p2667
(dp2668
g10
(lp2669
g12
aNasbsI97
(imap
Border
p2670
(dp2671
g10
(lp2672
g12
aNasbsI98
(imap
Border
p2673
(dp2674
g10
(lp2675
g12
aNasbsI99
(imap
Border
p2676
(dp2677
g10
(lp2678
g12
aNasbsI100
(imap
Border
p2679
(dp2680
g10
(lp2681
g12
aNasbsI101
(imap
Border
p2682
(dp2683
g10
(lp2684
g12
aNasbsI102
(imap
Border
p2685
(dp2686
g10
(lp2687
g12
aNasbsI103
(imap
Border
p2688
(dp2689
g10
(lp2690
g12
aNasbsI104
(imap
Border
p2691
(dp2692
g10
(lp2693
g12
aNasbsI105
(imap
Border
p2694
(dp2695
g10
(lp2696
g12
aNasbsI106
(imap
Border
p2697
(dp2698
g10
(lp2699
g12
aNasbsI107
(imap
Border
p2700
(dp2701
g10
(lp2702
g12
aNasbsI108
(imap
Border
p2703
(dp2704
g10
(lp2705
g12
aNasbsI109
(imap
Border
p2706
(dp2707
g10
(lp2708
g12
aNasbsI110
(imap
Border
p2709
(dp2710
g10
(lp2711
g12
aNasbsI111
(imap
Border
p2712
(dp2713
g10
(lp2714
g12
aNasbsI112
(imap
Border
p2715
(dp2716
g10
(lp2717
g12
aNasbsI113
(imap
Border
p2718
(dp2719
g10
(lp2720
g12
aNasbsI114
(imap
Border
p2721
(dp2722
g10
(lp2723
g12
aNasbsI115
(imap
Border
p2724
(dp2725
g10
(lp2726
g12
aNasbsI116
(imap
Border
p2727
(dp2728
g10
(lp2729
g12
aNasbsI117
(imap
Border
p2730
(dp2731
g10
(lp2732
g12
aNasbsI118
(imap
Border
p2733
(dp2734
g10
(lp2735
g12
aNasbsI119
(imap
Border
p2736
(dp2737
g10
(lp2738
g12
aNasbsI120
(imap
Border
p2739
(dp2740
g10
(lp2741
g12
aNasbsI121
(imap
Border
p2742
(dp2743
g10
(lp2744
g12
aNasbsI122
(imap
Border
p2745
(dp2746
g10
(lp2747
g12
aNasbsI123
(imap
Border
p2748
(dp2749
g10
(lp2750
g12
aNasbsI124
(imap
Border
p2751
(dp2752
g10
(lp2753
g12
aNasbsI125
(imap
Border
p2754
(dp2755
g10
(lp2756
g12
aNasbsI126
(imap
Border
p2757
(dp2758
g10
(lp2759
g12
aNasbsI127
(imap
Border
p2760
(dp2761
g10
(lp2762
g12
aNasbsI128
(imap
Border
p2763
(dp2764
g10
(lp2765
g12
aNasbsI129
(imap
Border
p2766
(dp2767
g10
(lp2768
g12
aNasbsI130
(imap
Border
p2769
(dp2770
g10
(lp2771
g12
aNasbsI131
(imap
Border
p2772
(dp2773
g10
(lp2774
g12
aNasbsI132
(imap
Border
p2775
(dp2776
g10
(lp2777
g12
aNasbsI133
(imap
Border
p2778
(dp2779
g10
(lp2780
g12
aNasbsI134
(imap
Border
p2781
(dp2782
g10
(lp2783
g12
aNasbsI135
(imap
Border
p2784
(dp2785
g10
(lp2786
g12
aNasbsI136
(imap
Border
p2787
(dp2788
g10
(lp2789
g12
aNasbsI137
(imap
Border
p2790
(dp2791
g10
(lp2792
g12
aNasbsI138
(imap
Border
p2793
(dp2794
g10
(lp2795
g12
aNasbsI139
(imap
Border
p2796
(dp2797
g10
(lp2798
g12
aNasbsI140
(imap
Border
p2799
(dp2800
g10
(lp2801
g12
aNasbsI141
(imap
Border
p2802
(dp2803
g10
(lp2804
g12
aNasbsI142
(imap
Border
p2805
(dp2806
g10
(lp2807
g12
aNasbsI143
(imap
Border
p2808
(dp2809
g10
(lp2810
g12
aNasbsI144
(imap
Border
p2811
(dp2812
g10
(lp2813
g12
aNasbsI145
(imap
Border
p2814
(dp2815
g10
(lp2816
g12
aNasbsI146
(imap
Border
p2817
(dp2818
g10
(lp2819
g12
aNasbsI147
(imap
Border
p2820
(dp2821
g10
(lp2822
g12
aNasbsI148
(imap
Border
p2823
(dp2824
g10
(lp2825
g12
aNasbsI149
(imap
Border
p2826
(dp2827
g10
(lp2828
g12
aNasbsI150
(imap
Border
p2829
(dp2830
g10
(lp2831
g12
aNasbsI151
(imap
Border
p2832
(dp2833
g10
(lp2834
g12
aNasbsI152
(imap
Border
p2835
(dp2836
g10
(lp2837
g12
aNasbsI153
(imap
Border
p2838
(dp2839
g10
(lp2840
g12
aNasbsI154
(imap
Border
p2841
(dp2842
g10
(lp2843
g12
aNasbsI155
(imap
Border
p2844
(dp2845
g10
(lp2846
g12
aNasbsI156
(imap
Border
p2847
(dp2848
g10
(lp2849
g12
aNasbsI157
(imap
Border
p2850
(dp2851
g10
(lp2852
g12
aNasbsI158
(imap
Border
p2853
(dp2854
g10
(lp2855
g12
aNasbsI159
(imap
Border
p2856
(dp2857
g10
(lp2858
g12
aNasbsI160
(imap
Border
p2859
(dp2860
g10
(lp2861
g12
aNasbsI161
(imap
Border
p2862
(dp2863
g10
(lp2864
g12
aNasbsI162
(imap
Border
p2865
(dp2866
g10
(lp2867
g12
aNasbsI163
(imap
Border
p2868
(dp2869
g10
(lp2870
g12
aNasbsI164
(imap
Border
p2871
(dp2872
g10
(lp2873
g12
aNasbsI165
(imap
Border
p2874
(dp2875
g10
(lp2876
g12
aNasbsI166
(imap
Border
p2877
(dp2878
g10
(lp2879
g12
aNasbsI167
(imap
Border
p2880
(dp2881
g10
(lp2882
g12
aNasbsI168
(imap
Border
p2883
(dp2884
g10
(lp2885
g12
aNasbsI169
(imap
Border
p2886
(dp2887
g10
(lp2888
g12
aNasbsI170
(imap
Border
p2889
(dp2890
g10
(lp2891
g12
aNasbsI171
(imap
Border
p2892
(dp2893
g10
(lp2894
g12
aNasbsI172
(imap
Border
p2895
(dp2896
g10
(lp2897
g12
aNasbsI173
(imap
Border
p2898
(dp2899
g10
(lp2900
g12
aNasbsI174
(imap
Border
p2901
(dp2902
g10
(lp2903
g12
aNasbsI175
(imap
Border
p2904
(dp2905
g10
(lp2906
g12
aNasbsI176
(imap
Border
p2907
(dp2908
g10
(lp2909
g12
aNasbsI177
(imap
Border
p2910
(dp2911
g10
(lp2912
g12
aNasbsI178
(imap
Border
p2913
(dp2914
g10
(lp2915
g12
aNasbsI179
(imap
Border
p2916
(dp2917
g10
(lp2918
g12
aNasbsI180
(imap
Border
p2919
(dp2920
g10
(lp2921
g12
aNasbsI181
(imap
Border
p2922
(dp2923
g10
(lp2924
g12
aNasbsI182
(imap
Border
p2925
(dp2926
g10
(lp2927
g12
aNasbsI183
(imap
Border
p2928
(dp2929
g10
(lp2930
g12
aNasbsI184
(imap
Border
p2931
(dp2932
g10
(lp2933
g12
aNasbsI185
(imap
Border
p2934
(dp2935
g10
(lp2936
g12
aNasbsI186
(imap
Border
p2937
(dp2938
g10
(lp2939
g12
aNasbsI187
(imap
Border
p2940
(dp2941
g10
(lp2942
g12
aNasbsI188
(imap
Border
p2943
(dp2944
g10
(lp2945
g12
aNasbsI189
(imap
Border
p2946
(dp2947
g10
(lp2948
g12
aNasbsI190
(imap
Border
p2949
(dp2950
g10
(lp2951
g12
aNasbsI191
(imap
Border
p2952
(dp2953
g10
(lp2954
g12
aNasbsI192
(imap
Border
p2955
(dp2956
g10
(lp2957
g12
aNasbsI193
(imap
Border
p2958
(dp2959
g10
(lp2960
g12
aNasbsI194
(imap
Border
p2961
(dp2962
g10
(lp2963
g12
aNasbsI195
(imap
Border
p2964
(dp2965
g10
(lp2966
g12
aNasbsI196
(imap
Border
p2967
(dp2968
g10
(lp2969
g12
aNasbsI197
(imap
Border
p2970
(dp2971
g10
(lp2972
g12
aNasbsI198
(imap
Border
p2973
(dp2974
g10
(lp2975
g12
aNasbsI199
(imap
Border
p2976
(dp2977
g10
(lp2978
g12
aNasbsasS'height'
p2979
I200
sS'territories'
p2980
(dp2981
g1409
(iterritory
Territory
p2982
(dp2983
g830
(F44.494533579936366
F223.6198039961206
F11.353978831808323
tp2984
sg832
I0
sg833
S'Brazil'
p2985
sg10
(lp2986
sg836
(iterritory
Player
p2987
(dp2988
g830
(I255
I0
I0
tp2989
sbsbsS'Afghanistan'
p2990
(iterritory
Territory
p2991
(dp2992
g830
(F29.136153467399723
F175.46957830800528
F119.57668865123657
tp2993
sg832
I0
sg833
S'Afghanistan'
p2994
sg10
(lp2995
sg836
g2987
sbsS'Madagascar'
p2996
(iterritory
Territory
p2997
(dp2998
g830
(F206.3519307004604
F18.657834787805072
F58.487187674075074
tp2999
sg832
I0
sg833
S'Madagascar'
p3000
sg10
(lp3001
sg836
g2987
sbsS'Ontario'
p3002
(iterritory
Territory
p3003
(dp3004
g830
(F145.02079370851726
F68.63692791140967
F32.22776063584013
tp3005
sg832
I0
sg833
S'Ontario'
p3006
sg10
(lp3007
sg836
g2987
sbsS'Southern Europe'
p3008
(iterritory
Territory
p3009
(dp3010
g830
(F25.113806997326904
F52.75571410859591
F186.43933425270762
tp3011
sg832
I0
sg833
S'Southern Europe'
p3012
sg10
(lp3013
sg836
g2987
sbsS'Mongolia'
p3014
(iterritory
Territory
p3015
(dp3016
g830
(F34.08630085426893
F197.39989451436588
F169.099977224817
tp3017
sg832
I0
sg833
S'Mongolia'
p3018
sg10
(lp3019
sg836
g2987
sbsS'Great Britain'
p3020
(iterritory
Territory
p3021
(dp3022
g830
(F39.47572055045994
F44.9006124937572
F161.75431502865575
tp3023
sg832
I0
sg833
S'Great Britain'
p3024
sg10
(lp3025
sg836
g2987
sbsS'Middle East'
p3026
(iterritory
Territory
p3027
(dp3028
g830
(F16.00171985054557
F185.57614765622694
F105.15615094655078
tp3029
sg832
I0
sg833
S'Middle East'
p3030
sg10
(lp3031
sg836
g2987
sbsg1371
(iterritory
Territory
p3032
(dp3033
g830
(F69.75610588233359
F142.64041063209277
F41.607484368313536
tp3034
sg832
I0
sg833
S'Peru'
p3035
sg10
(lp3036
sg836
g2987
sbsS'Alberta'
p3037
(iterritory
Territory
p3038
(dp3039
g830
(F120.06790672054177
F35.81546252535183
F60.08397262344545
tp3040
sg832
I0
sg833
S'Alberta'
p3041
sg10
(lp3042
sg836
g2987
sbsS'Siam'
p3043
(iterritory
Territory
p3044
(dp3045
g830
(F23.615604331963656
F203.60706223744896
F126.51340384090572
tp3046
sg832
I0
sg833
S'Siam'
p3047
sg10
(lp3048
sg836
g2987
sbsS'Kamchatka'
p3049
(iterritory
Territory
p3050
(dp3051
g830
(F16.9713471362519
F173.78096406459184
F190.76185000644534
tp3052
sg832
I0
sg833
S'Kamchatka'
p3053
sg10
(lp3054
sg836
g2987
sbsg1376
(iterritory
Territory
p3055
(dp3056
g830
(F68.99377698025003
F228.33153082269092
F21.649003180081586
tp3057
sg832
I0
sg833
S'Venezuela'
p3058
sg10
(lp3059
sg836
g2987
sbsg1304
(iterritory
Territory
p3060
(dp3061
g830
(F69.03045056926521
F235.90043885713197
F25.070649007935803
tp3062
sg832
I0
sg833
S'Argentina'
p3063
sg10
(lp3064
sg836
g2987
sbsS'Eastern US'
p3065
(iterritory
Territory
p3066
(dp3067
g830
(F156.3128258738022
F54.17946030007454
F53.94144391339749
tp3068
sg832
I0
sg833
S'Eastern US'
p3069
sg10
(lp3070
sg836
g2987
sbsS'Northern Europe'
p3071
(iterritory
Territory
p3072
(dp3073
g830
(F20.085047634440745
F27.72122092496058
F188.52876916979665
tp3074
sg832
I0
sg833
S'Northern Europe'
p3075
sg10
(lp3076
sg836
g2987
sbsS'Iceland'
p3077
(iterritory
Territory
p3078
(dp3079
g830
(F72.20172969953404
F41.48528234293374
F147.4504452145247
tp3080
sg832
I0
sg833
S'Iceland'
p3081
sg10
(lp3082
sg836
g2987
sbsS'Irkutsk'
p3083
(iterritory
Territory
p3084
(dp3085
g830
(F11.974725932212374
F229.04960318718423
F175.2880046497553
tp3086
sg832
I0
sg833
S'Irkutsk'
p3087
sg10
(lp3088
sg836
g2987
sbsS'China'
p3089
(iterritory
Territory
p3090
(dp3091
g830
(F24.753688495514425
F239.38759796273155
F135.4487041844681
tp3092
sg832
I0
sg833
S'China'
p3093
sg10
(lp3094
sg836
g2987
sbsS'Ural'
p3095
(iterritory
Territory
p3096
(dp3097
g830
(F19.543720812904983
F143.7088855766941
F114.28039165067699
tp3098
sg832
I0
sg833
S'Ural'
p3099
sg10
(lp3100
sg836
g2987
sbsS'North Africa'
p3101
(iterritory
Territory
p3102
(dp3103
g830
(F222.95587866510334
F51.627859342078914
F114.08123533958712
tp3104
sg832
I0
sg833
S'North Africa'
p3105
sg10
(lp3106
sg836
g2987
sbsS'Siberia'
p3107
(iterritory
Territory
p3108
(dp3109
g830
(F26.30274970745843
F172.62468218713514
F149.1337315565481
tp3110
sg832
I0
sg833
S'Siberia'
p3111
sg10
(lp3112
sg836
g2987
sbsS'Ukraine'
p3113
(iterritory
Territory
p3114
(dp3115
g830
(F25.791638087561886
F38.4739620201383
F162.26838493649828
tp3116
sg832
I0
sg833
S'Ukraine'
p3117
sg10
(lp3118
sg836
g2987
sbsS'Yakutsk'
p3119
(iterritory
Territory
p3120
(dp3121
g830
(F18.761954151091405
F124.58836049145232
F164.6264039994755
tp3122
sg832
I0
sg833
S'Yakutsk'
p3123
sg10
(lp3124
sg836
g2987
sbsS'Scandinavia'
p3125
(iterritory
Territory
p3126
(dp3127
g830
(F8.773408695739363
F17.960958239703317
F133.27565781975005
tp3128
sg832
I0
sg833
S'Scandinavia'
p3129
sg10
(lp3130
sg836
g2987
sbsS'Indonesia'
p3131
(iterritory
Territory
p3132
(dp3133
g830
(F154.60279346899333
F10.084441236970997
F139.77919870974617
tp3134
sg832
I0
sg833
S'Indonesia'
p3135
sg10
(lp3136
sg836
g2987
sbsS'Alaska'
p3137
(iterritory
Territory
p3138
(dp3139
g830
(F193.25427057520764
F68.12490602471746
F56.395440716450835
tp3140
sg832
I0
sg833
S'Alaska'
p3141
sg10
(lp3142
sg836
g2987
sbsS'New Guinea'
p3143
(iterritory
Territory
p3144
(dp3145
g830
(F160.64549421938622
F7.976285359053533
F158.45865606200982
tp3146
sg832
I0
sg833
S'New Guinea'
p3147
sg10
(lp3148
sg836
g2987
sbsS'Greenland'
p3149
(iterritory
Territory
p3150
(dp3151
g830
(F214.1386123699803
F120.86401483975078
F39.993695094555065
tp3152
sg832
I0
sg833
S'Greenland'
p3153
sg10
(lp3154
sg836
g2987
sbsS'East Africa'
p3155
(iterritory
Territory
p3156
(dp3157
g830
(F160.78896228342498
F19.20673363876944
F95.92081397094567
tp3158
sg832
I0
sg833
S'East Africa'
p3159
sg10
(lp3160
sg836
g2987
sbsS'Western Australia'
p3161
(iterritory
Territory
p3162
(dp3163
g830
(F163.917817961438
F5.685427403434186
F147.5530379495252
tp3164
sg832
I0
sg833
S'Western Australia'
p3165
sg10
(lp3166
sg836
g2987
sbsS'South Africa'
p3167
(iterritory
Territory
p3168
(dp3169
g830
(F161.94441885467114
F17.736461966115918
F50.10884504331628
tp3170
sg832
I0
sg833
S'South Africa'
p3171
sg10
(lp3172
sg836
g2987
sbsS'Egypt'
p3173
(iterritory
Territory
p3174
(dp3175
g830
(F218.18318987098078
F17.718982393850702
F90.65421013839762
tp3176
sg832
I0
sg833
S'Egypt'
p3177
sg10
(lp3178
sg836
g2987
sbsS'India'
p3179
(iterritory
Territory
p3180
(dp3181
g830
(F20.284226289235434
F152.64862364566886
F199.6178523576633
tp3182
sg832
I0
sg833
S'India'
p3183
sg10
(lp3184
sg836
g2987
sbsS'Northwest Territory'
p3185
(iterritory
Territory
p3186
(dp3187
g830
(F124.11678661915512
F83.11557159977517
F45.76915392081932
tp3188
sg832
I0
sg833
S'Northwest Territory'
p3189
sg10
(lp3190
sg836
g2987
sbsS'Central America'
p3191
(iterritory
Territory
p3192
(dp3193
g830
(F200.5074983095024
F65.49074269853149
F58.545644873777015
tp3194
sg832
I0
sg833
S'Central America'
p3195
sg10
(lp3196
sg836
g2987
sbsS'Congo'
p3197
(iterritory
Territory
p3198
(dp3199
g830
(F177.96762853868313
F35.53227762864763
F53.71176428668667
tp3200
sg832
I0
sg833
S'Congo'
p3201
sg10
(lp3202
sg836
g2987
sbsS'Quebec'
p3203
(iterritory
Territory
p3204
(dp3205
g830
(F206.53029949278636
F125.9341002472131
F50.709072219887844
tp3206
sg832
I0
sg833
S'Quebec'
p3207
sg10
(lp3208
sg836
g2987
sbsS'Japan'
p3209
(iterritory
Territory
p3210
(dp3211
g830
(F20.080282936048647
F170.1479219539851
F114.69548576282686
tp3212
sg832
I0
sg833
S'Japan'
p3213
sg10
(lp3214
sg836
g2987
sbsS'Western Europe'
p3215
(iterritory
Territory
p3216
(dp3217
g830
(F71.17364873277899
F54.021685785496686
F142.8625596613815
tp3218
sg832
I0
sg833
S'Western Europe'
p3219
sg10
(lp3220
sg836
g2987
sbsS'Eastern Australia'
p3221
(iterritory
Territory
p3222
(dp3223
g830
(F173.07836414732998
F10.491497918261206
F141.7879390750675
tp3224
sg832
I0
sg833
S'Eastern Australia'
p3225
sg10
(lp3226
sg836
g2987
sbsS'Western US'
p3227
(iterritory
Territory
p3228
(dp3229
g830
(F165.6473210418223
F91.22322769386733
F49.73558591591496
tp3230
sg832
I0
sg833
S'Western US'
p3231
sg10
(lp3232
sg836
g2987
sbssS'centers'
p3233
(dp3234
sS'right_borders'
p3235
(lp3236
(dp3237
I0
(imap
Border
p3238
(dp3239
g10
(lp3240
Nag12
asbsI200
(imap
Border
p3241
(dp3242
g10
(lp3243
g12
aNasbsa(dp3244
I0
(imap
Border
p3245
(dp3246
g10
(lp3247
Nag12
asbsI200
(imap
Border
p3248
(dp3249
g10
(lp3250
g12
aNasbsa(dp3251
I0
(imap
Border
p3252
(dp3253
g10
(lp3254
Nag12
asbsI200
(imap
Border
p3255
(dp3256
g10
(lp3257
g12
aNasbsa(dp3258
I0
(imap
Border
p3259
(dp3260
g10
(lp3261
Nag12
asbsI200
(imap
Border
p3262
(dp3263
g10
(lp3264
g12
aNasbsa(dp3265
I0
(imap
Border
p3266
(dp3267
g10
(lp3268
Nag12
asbsI200
(imap
Border
p3269
(dp3270
g10
(lp3271
(iterritory
Territory
p3272
(dp3273
g830
(F167.84815100477533
F74.53751931676359
F59.93640053935559
tp3274
sg832
I0
sg833
S'Alaska'
p3275
sg10
(lp3276
sg836
(iterritory
Player
p3277
(dp3278
g830
(I255
I0
I0
tp3279
sbsbaNasbsI50
(imap
Border
p3280
(dp3281
g10
(lp3282
g12
ag3272
asbsI52
(imap
Border
p3283
(dp3284
g10
(lp3285
g3272
ag12
asbsI54
(imap
Border
p3286
(dp3287
g10
(lp3288
g12
ag3272
asbsI57
(imap
Border
p3289
(dp3290
g10
(lp3291
g3272
ag12
asbsI58
(imap
Border
p3292
(dp3293
g10
(lp3294
g12
ag3272
asbsa(dp3295
I0
(imap
Border
p3296
(dp3297
g10
(lp3298
Nag12
asbsI200
(imap
Border
p3299
(dp3300
g10
(lp3301
g12
aNasbsI50
(imap
Border
p3302
(dp3303
g10
(lp3304
g12
ag3272
asbsI53
(imap
Border
p3305
(dp3306
g10
(lp3307
g3272
ag12
asbsI54
(imap
Border
p3308
(dp3309
g10
(lp3310
g12
ag3272
asbsI59
(imap
Border
p3311
(dp3312
g10
(lp3313
g3272
ag12
asbsI62
(imap
Border
p3314
(dp3315
g10
(lp3316
g3272
ag12
asbsa(dp3317
I0
(imap
Border
p3318
(dp3319
g10
(lp3320
Nag12
asbsI200
(imap
Border
p3321
(dp3322
g10
(lp3323
g12
aNasbsI50
(imap
Border
p3324
(dp3325
g10
(lp3326
g12
ag3272
asbsI62
(imap
Border
p3327
(dp3328
g10
(lp3329
g3272
ag12
asbsa(dp3330
I0
(imap
Border
p3331
(dp3332
g10
(lp3333
Nag12
asbsI200
(imap
Border
p3334
(dp3335
g10
(lp3336
g12
aNasbsI50
(imap
Border
p3337
(dp3338
g10
(lp3339
g12
ag3272
asbsI63
(imap
Border
p3340
(dp3341
g10
(lp3342
g3272
ag12
asbsa(dp3343
I0
(imap
Border
p3344
(dp3345
g10
(lp3346
Nag12
asbsI200
(imap
Border
p3347
(dp3348
g10
(lp3349
g3272
aNasbsI50
(imap
Border
p3350
(dp3351
g10
(lp3352
g12
ag3272
asbsI63
(imap
Border
p3353
(dp3354
g10
(lp3355
g3272
ag12
asbsa(dp3356
I0
(imap
Border
p3357
(dp3358
g10
(lp3359
Nag12
asbsI200
(imap
Border
p3360
(dp3361
g10
(lp3362
g3272
aNasbsI50
(imap
Border
p3363
(dp3364
g10
(lp3365
g12
ag3272
asbsI62
(imap
Border
p3366
(dp3367
g10
(lp3368
g12
ag3272
asbsI63
(imap
Border
p3369
(dp3370
g10
(lp3371
g3272
ag12
asbsa(dp3372
I0
(imap
Border
p3373
(dp3374
g10
(lp3375
Nag12
asbsI200
(imap
Border
p3376
(dp3377
g10
(lp3378
g12
aNasbsI50
(imap
Border
p3379
(dp3380
g10
(lp3381
g12
ag3272
asbsI63
(imap
Border
p3382
(dp3383
g10
(lp3384
g3272
ag12
asbsa(dp3385
I0
(imap
Border
p3386
(dp3387
g10
(lp3388
Nag12
asbsI200
(imap
Border
p3389
(dp3390
g10
(lp3391
g12
aNasbsI50
(imap
Border
p3392
(dp3393
g10
(lp3394
g12
ag3272
asbsI65
(imap
Border
p3395
(dp3396
g10
(lp3397
g3272
ag12
asbsa(dp3398
I0
(imap
Border
p3399
(dp3400
g10
(lp3401
Nag12
asbsI200
(imap
Border
p3402
(dp3403
g10
(lp3404
(iterritory
Territory
p3405
(dp3406
g830
(F189.45591804573323
F48.34604359047671
F24.188543696631047
tp3407
sg832
I0
sg833
S'Alberta'
p3408
sg10
(lp3409
sg836
g3277
sbaNasbsI66
(imap
Border
p3410
(dp3411
g10
(lp3412
g3405
ag12
asbsI50
(imap
Border
p3413
(dp3414
g10
(lp3415
g12
ag3272
asbsI65
(imap
Border
p3416
(dp3417
g10
(lp3418
g3272
ag3405
asbsa(dp3419
I0
(imap
Border
p3420
(dp3421
g10
(lp3422
Nag12
asbsI65
(imap
Border
p3423
(dp3424
g10
(lp3425
g12
ag3405
asbsI67
(imap
Border
p3426
(dp3427
g10
(lp3428
g3405
ag12
asbsI200
(imap
Border
p3429
(dp3430
g10
(lp3431
g3405
aNasbsI64
(imap
Border
p3432
(dp3433
g10
(lp3434
g3272
ag3405
asbsI50
(imap
Border
p3435
(dp3436
g10
(lp3437
g12
ag3272
asbsa(dp3438
I0
(imap
Border
p3439
(dp3440
g10
(lp3441
Nag12
asbsI64
(imap
Border
p3442
(dp3443
g10
(lp3444
g3272
ag3405
asbsI200
(imap
Border
p3445
(dp3446
g10
(lp3447
g1346
aNasbsI73
(imap
Border
p3448
(dp3449
g10
(lp3450
g3405
ag12
asbsI49
(imap
Border
p3451
(dp3452
g10
(lp3453
g12
ag3272
asbsI89
(imap
Border
p3454
(dp3455
g10
(lp3456
g12
a(iterritory
Territory
p3457
(dp3458
g830
(F195.12455187410671
F109.17886830789655
F24.152902022215788
tp3459
sg832
I0
sg833
S'Western US'
p3460
sg10
(lp3461
sg836
g837
sbasbsI91
(imap
Border
p3462
(dp3463
g10
(lp3464
g3457
ag1346
asbsa(dp3465
I0
(imap
Border
p3466
(dp3467
g10
(lp3468
Nag12
asbsI64
(imap
Border
p3469
(dp3470
g10
(lp3471
(iterritory
Territory
p3472
(dp3473
g830
(F204.34412843778097
F78.86181990748413
F59.90402867764446
tp3474
sg832
I0
sg833
S'Northwest Territory'
p3475
sg10
(lp3476
sg836
g3277
sbag3405
asbsI200
(imap
Border
p3477
(dp3478
g10
(lp3479
g1346
aNasbsI73
(imap
Border
p3480
(dp3481
g10
(lp3482
g3405
ag12
asbsI47
(imap
Border
p3483
(dp3484
g10
(lp3485
g12
ag3472
asbsI50
(imap
Border
p3486
(dp3487
g10
(lp3488
g3472
ag3272
asbsI83
(imap
Border
p3489
(dp3490
g10
(lp3491
g12
ag3457
asbsI90
(imap
Border
p3492
(dp3493
g10
(lp3494
g12
ag3457
asbsI93
(imap
Border
p3495
(dp3496
g10
(lp3497
g3457
ag1346
asbsI58
(imap
Border
p3498
(dp3499
g10
(lp3500
g3272
ag3472
asbsa(dp3501
I0
(imap
Border
p3502
(dp3503
g10
(lp3504
Nag12
asbsI97
(imap
Border
p3505
(dp3506
g10
(lp3507
g3457
ag828
asbsI98
(imap
Border
p3508
(dp3509
g10
(lp3510
g828
ag1346
asbsI200
(imap
Border
p3511
(dp3512
g10
(lp3513
g1346
aNasbsI64
(imap
Border
p3514
(dp3515
g10
(lp3516
g3472
ag3405
asbsI75
(imap
Border
p3517
(dp3518
g10
(lp3519
g3405
ag12
asbsI82
(imap
Border
p3520
(dp3521
g10
(lp3522
g3405
ag3457
asbsI78
(imap
Border
p3523
(dp3524
g10
(lp3525
g12
ag3405
asbsI47
(imap
Border
p3526
(dp3527
g10
(lp3528
g12
ag3472
asbsI90
(imap
Border
p3529
(dp3530
g10
(lp3531
g1346
ag3457
asbsa(dp3532
I0
(imap
Border
p3533
(dp3534
g10
(lp3535
Nag12
asbsI97
(imap
Border
p3536
(dp3537
g10
(lp3538
g3457
ag828
asbsI100
(imap
Border
p3539
(dp3540
g10
(lp3541
g828
ag1346
asbsI200
(imap
Border
p3542
(dp3543
g10
(lp3544
g1346
aNasbsI64
(imap
Border
p3545
(dp3546
g10
(lp3547
g3472
ag3405
asbsI46
(imap
Border
p3548
(dp3549
g10
(lp3550
g12
ag3472
asbsI82
(imap
Border
p3551
(dp3552
g10
(lp3553
g3405
ag3457
asbsa(dp3554
I0
(imap
Border
p3555
(dp3556
g10
(lp3557
Nag1346
asbsI97
(imap
Border
p3558
(dp3559
g10
(lp3560
g3457
ag828
asbsI100
(imap
Border
p3561
(dp3562
g10
(lp3563
g828
ag12
asbsI200
(imap
Border
p3564
(dp3565
g10
(lp3566
g12
aNasbsI64
(imap
Border
p3567
(dp3568
g10
(lp3569
g3472
ag3405
asbsI46
(imap
Border
p3570
(dp3571
g10
(lp3572
g1346
ag3472
asbsI82
(imap
Border
p3573
(dp3574
g10
(lp3575
g3405
ag3457
asbsa(dp3576
I0
(imap
Border
p3577
(dp3578
g10
(lp3579
Nag1346
asbsI97
(imap
Border
p3580
(dp3581
g10
(lp3582
g3457
ag828
asbsI102
(imap
Border
p3583
(dp3584
g10
(lp3585
g828
ag12
asbsI200
(imap
Border
p3586
(dp3587
g10
(lp3588
g12
aNasbsI64
(imap
Border
p3589
(dp3590
g10
(lp3591
g3472
ag3405
asbsI46
(imap
Border
p3592
(dp3593
g10
(lp3594
g1346
ag3472
asbsI82
(imap
Border
p3595
(dp3596
g10
(lp3597
g3405
ag3457
asbsa(dp3598
I0
(imap
Border
p3599
(dp3600
g10
(lp3601
Nag1346
asbsI97
(imap
Border
p3602
(dp3603
g10
(lp3604
g3457
ag828
asbsI200
(imap
Border
p3605
(dp3606
g10
(lp3607
g12
aNasbsI64
(imap
Border
p3608
(dp3609
g10
(lp3610
g3472
ag3405
asbsI46
(imap
Border
p3611
(dp3612
g10
(lp3613
g1346
ag3472
asbsI82
(imap
Border
p3614
(dp3615
g10
(lp3616
g3405
ag3457
asbsI105
(imap
Border
p3617
(dp3618
g10
(lp3619
g828
ag12
asbsa(dp3620
I0
(imap
Border
p3621
(dp3622
g10
(lp3623
Nag12
asbsI64
(imap
Border
p3624
(dp3625
g10
(lp3626
g3472
ag3405
asbsI98
(imap
Border
p3627
(dp3628
g10
(lp3629
g3457
ag828
asbsI200
(imap
Border
p3630
(dp3631
g10
(lp3632
g12
aNasbsI109
(imap
Border
p3633
(dp3634
g10
(lp3635
g828
ag12
asbsI46
(imap
Border
p3636
(dp3637
g10
(lp3638
g12
ag3472
asbsI82
(imap
Border
p3639
(dp3640
g10
(lp3641
g3405
ag3457
asbsa(dp3642
I0
(imap
Border
p3643
(dp3644
g10
(lp3645
Nag12
asbsI64
(imap
Border
p3646
(dp3647
g10
(lp3648
g3472
ag3405
asbsI98
(imap
Border
p3649
(dp3650
g10
(lp3651
g3457
ag828
asbsI200
(imap
Border
p3652
(dp3653
g10
(lp3654
g12
aNasbsI109
(imap
Border
p3655
(dp3656
g10
(lp3657
g828
ag12
asbsI46
(imap
Border
p3658
(dp3659
g10
(lp3660
g12
ag3472
asbsI82
(imap
Border
p3661
(dp3662
g10
(lp3663
g3405
ag3457
asbsa(dp3664
I0
(imap
Border
p3665
(dp3666
g10
(lp3667
Nag12
asbsI64
(imap
Border
p3668
(dp3669
g10
(lp3670
g3472
ag3405
asbsI98
(imap
Border
p3671
(dp3672
g10
(lp3673
g3457
ag828
asbsI200
(imap
Border
p3674
(dp3675
g10
(lp3676
g12
aNasbsI109
(imap
Border
p3677
(dp3678
g10
(lp3679
g828
ag12
asbsI46
(imap
Border
p3680
(dp3681
g10
(lp3682
g12
ag3472
asbsI82
(imap
Border
p3683
(dp3684
g10
(lp3685
g3405
ag3457
asbsa(dp3686
I0
(imap
Border
p3687
(dp3688
g10
(lp3689
Nag12
asbsI64
(imap
Border
p3690
(dp3691
g10
(lp3692
g3472
ag3405
asbsI99
(imap
Border
p3693
(dp3694
g10
(lp3695
g3457
ag828
asbsI200
(imap
Border
p3696
(dp3697
g10
(lp3698
g12
aNasbsI45
(imap
Border
p3699
(dp3700
g10
(lp3701
g12
ag3472
asbsI111
(imap
Border
p3702
(dp3703
g10
(lp3704
g828
ag12
asbsI82
(imap
Border
p3705
(dp3706
g10
(lp3707
g3405
ag3457
asbsa(dp3708
I0
(imap
Border
p3709
(dp3710
g10
(lp3711
Nag12
asbsI64
(imap
Border
p3712
(dp3713
g10
(lp3714
g3472
ag3405
asbsI99
(imap
Border
p3715
(dp3716
g10
(lp3717
g3457
ag828
asbsI200
(imap
Border
p3718
(dp3719
g10
(lp3720
g12
aNasbsI45
(imap
Border
p3721
(dp3722
g10
(lp3723
g12
ag3472
asbsI111
(imap
Border
p3724
(dp3725
g10
(lp3726
g828
ag12
asbsI82
(imap
Border
p3727
(dp3728
g10
(lp3729
g3405
ag3457
asbsa(dp3730
I0
(imap
Border
p3731
(dp3732
g10
(lp3733
Nag12
asbsI96
(imap
Border
p3734
(dp3735
g10
(lp3736
g3457
a(iterritory
Territory
p3737
(dp3738
g830
(F185.8082528522289
F107.41563877521945
F39.864089851755836
tp3739
sg832
I0
sg833
S'Eastern US'
p3740
sg10
(lp3741
sg836
g837
sbasbsI99
(imap
Border
p3742
(dp3743
g10
(lp3744
g3737
ag828
asbsI200
(imap
Border
p3745
(dp3746
g10
(lp3747
g12
aNasbsI64
(imap
Border
p3748
(dp3749
g10
(lp3750
g3472
ag3405
asbsI45
(imap
Border
p3751
(dp3752
g10
(lp3753
g12
ag3472
asbsI112
(imap
Border
p3754
(dp3755
g10
(lp3756
g828
ag12
asbsI82
(imap
Border
p3757
(dp3758
g10
(lp3759
g3405
ag3457
asbsa(dp3760
I0
(imap
Border
p3761
(dp3762
g10
(lp3763
Nag12
asbsI64
(imap
Border
p3764
(dp3765
g10
(lp3766
g3472
ag3405
asbsI99
(imap
Border
p3767
(dp3768
g10
(lp3769
g3737
ag828
asbsI82
(imap
Border
p3770
(dp3771
g10
(lp3772
g3405
ag3457
asbsI200
(imap
Border
p3773
(dp3774
g10
(lp3775
g12
aNasbsI109
(imap
Border
p3776
(dp3777
g10
(lp3778
g12
ag828
asbsI45
(imap
Border
p3779
(dp3780
g10
(lp3781
g12
ag3472
asbsI104
(imap
Border
p3782
(dp3783
g10
(lp3784
g828
ag12
asbsI114
(imap
Border
p3785
(dp3786
g10
(lp3787
g828
ag12
asbsI92
(imap
Border
p3788
(dp3789
g10
(lp3790
g3457
ag3737
asbsa(dp3791
I0
(imap
Border
p3792
(dp3793
g10
(lp3794
Nag12
asbsI64
(imap
Border
p3795
(dp3796
g10
(lp3797
g3472
a(iterritory
Territory
p3798
(dp3799
g830
(F133.02798420996754
F78.75311587759053
F33.049373175921474
tp3800
sg832
I0
sg833
S'Ontario'
p3801
sg10
(lp3802
sg836
g3277
sbasbsI99
(imap
Border
p3803
(dp3804
g10
(lp3805
g3737
ag828
asbsI82
(imap
Border
p3806
(dp3807
g10
(lp3808
g3798
ag3457
asbsI200
(imap
Border
p3809
(dp3810
g10
(lp3811
g12
aNasbsI44
(imap
Border
p3812
(dp3813
g10
(lp3814
g12
ag3472
asbsI109
(imap
Border
p3815
(dp3816
g10
(lp3817
g1346
ag828
asbsI104
(imap
Border
p3818
(dp3819
g10
(lp3820
g828
ag1346
asbsI114
(imap
Border
p3821
(dp3822
g10
(lp3823
g828
ag12
asbsI92
(imap
Border
p3824
(dp3825
g10
(lp3826
g3457
ag3737
asbsa(dp3827
I0
(imap
Border
p3828
(dp3829
g10
(lp3830
Nag12
asbsI64
(imap
Border
p3831
(dp3832
g10
(lp3833
g3472
ag3798
asbsI99
(imap
Border
p3834
(dp3835
g10
(lp3836
g3737
ag12
asbsI200
(imap
Border
p3837
(dp3838
g10
(lp3839
g12
aNasbsI44
(imap
Border
p3840
(dp3841
g10
(lp3842
g12
ag3472
asbsI82
(imap
Border
p3843
(dp3844
g10
(lp3845
g3798
ag3457
asbsI110
(imap
Border
p3846
(dp3847
g10
(lp3848
g12
ag828
asbsI114
(imap
Border
p3849
(dp3850
g10
(lp3851
g828
ag12
asbsI90
(imap
Border
p3852
(dp3853
g10
(lp3854
g3457
ag3737
asbsa(dp3855
I0
(imap
Border
p3856
(dp3857
g10
(lp3858
Nag12
asbsI64
(imap
Border
p3859
(dp3860
g10
(lp3861
g3472
ag3798
asbsI99
(imap
Border
p3862
(dp3863
g10
(lp3864
g3737
ag12
asbsI200
(imap
Border
p3865
(dp3866
g10
(lp3867
g12
aNasbsI43
(imap
Border
p3868
(dp3869
g10
(lp3870
g12
ag3472
asbsI108
(imap
Border
p3871
(dp3872
g10
(lp3873
g12
ag828
asbsI82
(imap
Border
p3874
(dp3875
g10
(lp3876
g3798
ag3737
asbsI115
(imap
Border
p3877
(dp3878
g10
(lp3879
g828
ag12
asbsa(dp3880
I0
(imap
Border
p3881
(dp3882
g10
(lp3883
Nag12
asbsI64
(imap
Border
p3884
(dp3885
g10
(lp3886
g3472
ag3798
asbsI98
(imap
Border
p3887
(dp3888
g10
(lp3889
g3737
ag12
asbsI200
(imap
Border
p3890
(dp3891
g10
(lp3892
g12
aNasbsI43
(imap
Border
p3893
(dp3894
g10
(lp3895
g12
ag3472
asbsI108
(imap
Border
p3896
(dp3897
g10
(lp3898
g12
ag828
asbsI82
(imap
Border
p3899
(dp3900
g10
(lp3901
g3798
ag3737
asbsI118
(imap
Border
p3902
(dp3903
g10
(lp3904
g828
ag12
asbsa(dp3905
I0
(imap
Border
p3906
(dp3907
g10
(lp3908
Nag12
asbsI64
(imap
Border
p3909
(dp3910
g10
(lp3911
g3472
ag3798
asbsI98
(imap
Border
p3912
(dp3913
g10
(lp3914
g3737
ag12
asbsI200
(imap
Border
p3915
(dp3916
g10
(lp3917
g12
aNasbsI43
(imap
Border
p3918
(dp3919
g10
(lp3920
g12
ag3472
asbsI108
(imap
Border
p3921
(dp3922
g10
(lp3923
g12
ag828
asbsI82
(imap
Border
p3924
(dp3925
g10
(lp3926
g3798
ag3737
asbsI118
(imap
Border
p3927
(dp3928
g10
(lp3929
g828
ag12
asbsa(dp3930
I0
(imap
Border
p3931
(dp3932
g10
(lp3933
Nag12
asbsI96
(imap
Border
p3934
(dp3935
g10
(lp3936
g3737
ag12
asbsI200
(imap
Border
p3937
(dp3938
g10
(lp3939
g12
aNasbsI64
(imap
Border
p3940
(dp3941
g10
(lp3942
g3472
ag3798
asbsI43
(imap
Border
p3943
(dp3944
g10
(lp3945
g12
ag3472
asbsI113
(imap
Border
p3946
(dp3947
g10
(lp3948
g12
ag828
asbsI82
(imap
Border
p3949
(dp3950
g10
(lp3951
g3798
ag3737
asbsI119
(imap
Border
p3952
(dp3953
g10
(lp3954
g828
ag12
asbsa(dp3955
I0
(imap
Border
p3956
(dp3957
g10
(lp3958
Nag12
asbsI96
(imap
Border
p3959
(dp3960
g10
(lp3961
g3737
ag1346
asbsI200
(imap
Border
p3962
(dp3963
g10
(lp3964
g12
aNasbsI64
(imap
Border
p3965
(dp3966
g10
(lp3967
g3472
ag3798
asbsI43
(imap
Border
p3968
(dp3969
g10
(lp3970
g12
ag3472
asbsI82
(imap
Border
p3971
(dp3972
g10
(lp3973
g3798
ag3737
asbsI117
(imap
Border
p3974
(dp3975
g10
(lp3976
g1346
ag828
asbsI119
(imap
Border
p3977
(dp3978
g10
(lp3979
g828
ag12
asbsa(dp3980
I0
(imap
Border
p3981
(dp3982
g10
(lp3983
Nag12
asbsI96
(imap
Border
p3984
(dp3985
g10
(lp3986
g3737
ag1346
asbsI131
(imap
Border
p3987
(dp3988
g10
(lp3989
g1368
ag12
asbsI200
(imap
Border
p3990
(dp3991
g10
(lp3992
g12
aNasbsI64
(imap
Border
p3993
(dp3994
g10
(lp3995
g3472
ag3798
asbsI44
(imap
Border
p3996
(dp3997
g10
(lp3998
g12
ag3472
asbsI82
(imap
Border
p3999
(dp4000
g10
(lp4001
g3798
ag3737
asbsI117
(imap
Border
p4002
(dp4003
g10
(lp4004
g1346
ag828
asbsI120
(imap
Border
p4005
(dp4006
g10
(lp4007
g828
ag12
asbsI126
(imap
Border
p4008
(dp4009
g10
(lp4010
g828
ag1368
asbsa(dp4011
I0
(imap
Border
p4012
(dp4013
g10
(lp4014
Nag12
asbsI96
(imap
Border
p4015
(dp4016
g10
(lp4017
g3737
ag12
asbsI134
(imap
Border
p4018
(dp4019
g10
(lp4020
g1368
ag12
asbsI65
(imap
Border
p4021
(dp4022
g10
(lp4023
g12
ag3798
asbsI200
(imap
Border
p4024
(dp4025
g10
(lp4026
g12
aNasbsI44
(imap
Border
p4027
(dp4028
g10
(lp4029
g12
ag3472
asbsI82
(imap
Border
p4030
(dp4031
g10
(lp4032
g3798
ag3737
asbsI53
(imap
Border
p4033
(dp4034
g10
(lp4035
g3472
ag12
asbsI118
(imap
Border
p4036
(dp4037
g10
(lp4038
g12
ag828
asbsI120
(imap
Border
p4039
(dp4040
g10
(lp4041
g828
ag12
asbsI126
(imap
Border
p4042
(dp4043
g10
(lp4044
g12
ag1368
asbsa(dp4045
I0
(imap
Border
p4046
(dp4047
g10
(lp4048
Nag12
asbsI96
(imap
Border
p4049
(dp4050
g10
(lp4051
g3737
ag12
asbsI134
(imap
Border
p4052
(dp4053
g10
(lp4054
g1368
ag12
asbsI65
(imap
Border
p4055
(dp4056
g10
(lp4057
g12
ag3798
asbsI200
(imap
Border
p4058
(dp4059
g10
(lp4060
g12
aNasbsI46
(imap
Border
p4061
(dp4062
g10
(lp4063
g12
ag3472
asbsI82
(imap
Border
p4064
(dp4065
g10
(lp4066
g3798
ag3737
asbsI51
(imap
Border
p4067
(dp4068
g10
(lp4069
g3472
ag12
asbsI119
(imap
Border
p4070
(dp4071
g10
(lp4072
g12
ag828
asbsI123
(imap
Border
p4073
(dp4074
g10
(lp4075
g828
ag1368
asbsI126
(imap
Border
p4076
(dp4077
g10
(lp4078
g12
ag1368
asbsa(dp4079
I0
(imap
Border
p4080
(dp4081
g10
(lp4082
Nag12
asbsI97
(imap
Border
p4083
(dp4084
g10
(lp4085
g3737
ag12
asbsI66
(imap
Border
p4086
(dp4087
g10
(lp4088
g12
ag3798
asbsI136
(imap
Border
p4089
(dp4090
g10
(lp4091
g1368
ag12
asbsI200
(imap
Border
p4092
(dp4093
g10
(lp4094
g12
aNasbsI82
(imap
Border
p4095
(dp4096
g10
(lp4097
g3798
ag3737
asbsI119
(imap
Border
p4098
(dp4099
g10
(lp4100
g12
ag828
asbsI122
(imap
Border
p4101
(dp4102
g10
(lp4103
g828
ag1368
asbsa(dp4104
I0
(imap
Border
p4105
(dp4106
g10
(lp4107
Nag12
asbsI97
(imap
Border
p4108
(dp4109
g10
(lp4110
g3737
ag12
asbsI67
(imap
Border
p4111
(dp4112
g10
(lp4113
g12
ag3798
asbsI136
(imap
Border
p4114
(dp4115
g10
(lp4116
g1368
ag12
asbsI200
(imap
Border
p4117
(dp4118
g10
(lp4119
(iterritory
Territory
p4120
(dp4121
g830
(F78.71820742544736
F43.110111519114284
F156.73063354675406
tp4122
sg832
I0
sg833
g3113
sg10
(lp4123
sg836
g1306
sbaNasbsI85
(imap
Border
p4124
(dp4125
g10
(lp4126
g3798
ag3737
asbsI119
(imap
Border
p4127
(dp4128
g10
(lp4129
g12
ag1373
asbsI120
(imap
Border
p4130
(dp4131
g10
(lp4132
g12
ag1373
asbsI121
(imap
Border
p4133
(dp4134
g10
(lp4135
g1373
ag1368
asbsa(dp4136
I0
(imap
Border
p4137
(dp4138
g10
(lp4139
Nag12
asbsI68
(imap
Border
p4140
(dp4141
g10
(lp4142
g12
ag3798
asbsI101
(imap
Border
p4143
(dp4144
g10
(lp4145
g3737
ag12
asbsI200
(imap
Border
p4146
(dp4147
g10
(lp4148
g1346
aNasbsI138
(imap
Border
p4149
(dp4150
g10
(lp4151
g1368
ag1301
asbsI151
(imap
Border
p4152
(dp4153
g10
(lp4154
g1301
ag1346
asbsI85
(imap
Border
p4155
(dp4156
g10
(lp4157
g3798
ag3737
asbsI119
(imap
Border
p4158
(dp4159
g10
(lp4160
g12
ag1373
asbsI121
(imap
Border
p4161
(dp4162
g10
(lp4163
g1373
ag1368
asbsI122
(imap
Border
p4164
(dp4165
g10
(lp4166
g1373
ag1368
asbsa(dp4167
I0
(imap
Border
p4168
(dp4169
g10
(lp4170
Nag1346
asbsI130
(imap
Border
p4171
(dp4172
g10
(lp4173
g1406
ag1368
asbsI100
(imap
Border
p4174
(dp4175
g10
(lp4176
g3737
ag1346
asbsI200
(imap
Border
p4177
(dp4178
g10
(lp4179
g12
aNasbsI138
(imap
Border
p4180
(dp4181
g10
(lp4182
g1368
ag1301
asbsI84
(imap
Border
p4183
(dp4184
g10
(lp4185
g3798
ag3737
asbsI117
(imap
Border
p4186
(dp4187
g10
(lp4188
g1346
ag1373
asbsI68
(imap
Border
p4189
(dp4190
g10
(lp4191
g1346
ag3798
asbsI154
(imap
Border
p4192
(dp4193
g10
(lp4194
g1301
ag12
asbsI124
(imap
Border
p4195
(dp4196
g10
(lp4197
g1373
ag1368
asbsI126
(imap
Border
p4198
(dp4199
g10
(lp4200
g1368
ag1406
asbsa(dp4201
I0
(imap
Border
p4202
(dp4203
g10
(lp4204
Nag1346
asbsI130
(imap
Border
p4205
(dp4206
g10
(lp4207
g1406
ag1368
asbsI68
(imap
Border
p4208
(dp4209
g10
(lp4210
g1346
a(iterritory
Territory
p4211
(dp4212
g830
(F217.91300237334937
F101.81613137967392
F41.81206552583868
tp4213
sg832
I0
sg833
S'Quebec'
p4214
sg10
(lp4215
sg836
g3277
sbasbsI70
(imap
Border
p4216
(dp4217
g10
(lp4218
g1346
ag3798
asbsI200
(imap
Border
p4219
(dp4220
g10
(lp4221
g12
aNasbsI138
(imap
Border
p4222
(dp4223
g10
(lp4224
g1368
ag1301
asbsI98
(imap
Border
p4225
(dp4226
g10
(lp4227
g3737
ag1346
asbsI157
(imap
Border
p4228
(dp4229
g10
(lp4230
g1301
ag12
asbsI116
(imap
Border
p4231
(dp4232
g10
(lp4233
g1346
ag1373
asbsI84
(imap
Border
p4234
(dp4235
g10
(lp4236
g4211
ag3737
asbsI124
(imap
Border
p4237
(dp4238
g10
(lp4239
g1373
ag1406
asbsI125
(imap
Border
p4240
(dp4241
g10
(lp4242
g12
ag1406
asbsa(dp4243
I0
(imap
Border
p4244
(dp4245
g10
(lp4246
Nag1346
asbsI161
(imap
Border
p4247
(dp4248
g10
(lp4249
g1301
ag12
asbsI83
(imap
Border
p4250
(dp4251
g10
(lp4252
g3798
ag3737
asbsI132
(imap
Border
p4253
(dp4254
g10
(lp4255
g1406
ag1368
asbsI69
(imap
Border
p4256
(dp4257
g10
(lp4258
g1346
ag4211
asbsI200
(imap
Border
p4259
(dp4260
g10
(lp4261
g12
aNasbsI73
(imap
Border
p4262
(dp4263
g10
(lp4264
g4211
ag3798
asbsI138
(imap
Border
p4265
(dp4266
g10
(lp4267
g1368
ag1301
asbsI115
(imap
Border
p4268
(dp4269
g10
(lp4270
g1346
ag1373
asbsI123
(imap
Border
p4271
(dp4272
g10
(lp4273
g1373
ag1406
asbsI95
(imap
Border
p4274
(dp4275
g10
(lp4276
g3737
ag1346
asbsa(dp4277
I0
(imap
Border
p4278
(dp4279
g10
(lp4280
Nag1346
asbsI161
(imap
Border
p4281
(dp4282
g10
(lp4283
g1301
ag12
asbsI68
(imap
Border
p4284
(dp4285
g10
(lp4286
g1346
ag4211
asbsI134
(imap
Border
p4287
(dp4288
g10
(lp4289
g1406
ag1368
asbsI200
(imap
Border
p4290
(dp4291
g10
(lp4292
g12
aNasbsI138
(imap
Border
p4293
(dp4294
g10
(lp4295
g1368
ag1301
asbsI82
(imap
Border
p4296
(dp4297
g10
(lp4298
g4211
ag3737
asbsI114
(imap
Border
p4299
(dp4300
g10
(lp4301
g1346
ag1373
asbsI123
(imap
Border
p4302
(dp4303
g10
(lp4304
g1373
ag1406
asbsI93
(imap
Border
p4305
(dp4306
g10
(lp4307
g3737
ag1346
asbsa(dp4308
I0
(imap
Border
p4309
(dp4310
g10
(lp4311
Nag12
asbsI65
(imap
Border
p4312
(dp4313
g10
(lp4314
g12
ag4211
asbsI134
(imap
Border
p4315
(dp4316
g10
(lp4317
g1406
ag1368
asbsI200
(imap
Border
p4318
(dp4319
g10
(lp4320
g12
aNasbsI139
(imap
Border
p4321
(dp4322
g10
(lp4323
g1406
ag1301
asbsI81
(imap
Border
p4324
(dp4325
g10
(lp4326
g4211
ag3737
asbsI114
(imap
Border
p4327
(dp4328
g10
(lp4329
g12
ag1373
asbsI115
(imap
Border
p4330
(dp4331
g10
(lp4332
g12
ag1373
asbsI89
(imap
Border
p4333
(dp4334
g10
(lp4335
g3737
ag12
asbsI122
(imap
Border
p4336
(dp4337
g10
(lp4338
g1373
ag1406
asbsI156
(imap
Border
p4339
(dp4340
g10
(lp4341
g1301
ag12
asbsI157
(imap
Border
p4342
(dp4343
g10
(lp4344
g1301
ag12
asbsa(dp4345
I0
(imap
Border
p4346
(dp4347
g10
(lp4348
Nag12
asbsI135
(imap
Border
p4349
(dp4350
g10
(lp4351
g1406
ag1368
asbsI200
(imap
Border
p4352
(dp4353
g10
(lp4354
g12
aNasbsI139
(imap
Border
p4355
(dp4356
g10
(lp4357
g1406
ag1301
asbsI81
(imap
Border
p4358
(dp4359
g10
(lp4360
g4211
ag3737
asbsI114
(imap
Border
p4361
(dp4362
g10
(lp4363
g12
ag1373
asbsI115
(imap
Border
p4364
(dp4365
g10
(lp4366
g12
ag1373
asbsI87
(imap
Border
p4367
(dp4368
g10
(lp4369
g3737
ag12
asbsI154
(imap
Border
p4370
(dp4371
g10
(lp4372
g1301
ag12
asbsI122
(imap
Border
p4373
(dp4374
g10
(lp4375
g1373
ag1406
asbsI63
(imap
Border
p4376
(dp4377
g10
(lp4378
g12
ag4211
asbsa(dp4379
I0
(imap
Border
p4380
(dp4381
g10
(lp4382
Nag12
asbsI200
(imap
Border
p4383
(dp4384
g10
(lp4385
g12
aNasbsI140
(imap
Border
p4386
(dp4387
g10
(lp4388
g1406
ag1301
asbsI81
(imap
Border
p4389
(dp4390
g10
(lp4391
g4211
ag3737
asbsI115
(imap
Border
p4392
(dp4393
g10
(lp4394
g12
ag1373
asbsI86
(imap
Border
p4395
(dp4396
g10
(lp4397
g3737
ag12
asbsI121
(imap
Border
p4398
(dp4399
g10
(lp4400
g1373
ag1406
asbsI153
(imap
Border
p4401
(dp4402
g10
(lp4403
g1301
ag12
asbsI62
(imap
Border
p4404
(dp4405
g10
(lp4406
g12
ag4211
asbsa(dp4407
I0
(imap
Border
p4408
(dp4409
g10
(lp4410
Nag12
asbsI200
(imap
Border
p4411
(dp4412
g10
(lp4413
g12
aNasbsI141
(imap
Border
p4414
(dp4415
g10
(lp4416
g1406
ag1301
asbsI79
(imap
Border
p4417
(dp4418
g10
(lp4419
g4211
ag12
asbsI152
(imap
Border
p4420
(dp4421
g10
(lp4422
g1301
ag12
asbsI116
(imap
Border
p4423
(dp4424
g10
(lp4425
g12
ag1373
asbsI121
(imap
Border
p4426
(dp4427
g10
(lp4428
g1373
ag1406
asbsI59
(imap
Border
p4429
(dp4430
g10
(lp4431
g12
ag4211
asbsa(dp4432
I0
(imap
Border
p4433
(dp4434
g10
(lp4435
Nag12
asbsI200
(imap
Border
p4436
(dp4437
g10
(lp4438
g12
aNasbsI77
(imap
Border
p4439
(dp4440
g10
(lp4441
g4211
ag12
asbsI142
(imap
Border
p4442
(dp4443
g10
(lp4444
g1406
ag1301
asbsI121
(imap
Border
p4445
(dp4446
g10
(lp4447
g1373
ag1406
asbsI151
(imap
Border
p4448
(dp4449
g10
(lp4450
g1301
ag12
asbsI57
(imap
Border
p4451
(dp4452
g10
(lp4453
g12
ag4211
asbsI117
(imap
Border
p4454
(dp4455
g10
(lp4456
g12
ag1373
asbsa(dp4457
I0
(imap
Border
p4458
(dp4459
g10
(lp4460
Nag1346
asbsI200
(imap
Border
p4461
(dp4462
g10
(lp4463
g12
aNasbsI76
(imap
Border
p4464
(dp4465
g10
(lp4466
g4211
ag1346
asbsI142
(imap
Border
p4467
(dp4468
g10
(lp4469
g1406
ag1301
asbsI149
(imap
Border
p4470
(dp4471
g10
(lp4472
g1301
ag12
asbsI118
(imap
Border
p4473
(dp4474
g10
(lp4475
g1346
ag1406
asbsI119
(imap
Border
p4476
(dp4477
g10
(lp4478
g1406
ag1373
asbsI120
(imap
Border
p4479
(dp4480
g10
(lp4481
g1373
ag1406
asbsI57
(imap
Border
p4482
(dp4483
g10
(lp4484
g1346
ag4211
asbsa(dp4485
I0
(imap
Border
p4486
(dp4487
g10
(lp4488
Nag1346
asbsI200
(imap
Border
p4489
(dp4490
g10
(lp4491
g12
aNasbsI74
(imap
Border
p4492
(dp4493
g10
(lp4494
g4211
ag1346
asbsI143
(imap
Border
p4495
(dp4496
g10
(lp4497
g1406
ag1301
asbsI147
(imap
Border
p4498
(dp4499
g10
(lp4500
g1301
ag12
asbsI118
(imap
Border
p4501
(dp4502
g10
(lp4503
g1346
ag1406
asbsI57
(imap
Border
p4504
(dp4505
g10
(lp4506
g1346
ag4211
asbsa(dp4507
I0
(imap
Border
p4508
(dp4509
g10
(lp4510
Nag1346
asbsI200
(imap
Border
p4511
(dp4512
g10
(lp4513
g1301
aNasbsI73
(imap
Border
p4514
(dp4515
g10
(lp4516
g4211
ag1346
asbsI144
(imap
Border
p4517
(dp4518
g10
(lp4519
g1406
ag1301
asbsI145
(imap
Border
p4520
(dp4521
g10
(lp4522
g1301
ag12
asbsI118
(imap
Border
p4523
(dp4524
g10
(lp4525
g1346
ag1406
asbsI56
(imap
Border
p4526
(dp4527
g10
(lp4528
g1346
ag4211
asbsa(dp4529
I0
(imap
Border
p4530
(dp4531
g10
(lp4532
Nag1346
asbsI200
(imap
Border
p4533
(dp4534
g10
(lp4535
g12
aNasbsI143
(imap
Border
p4536
(dp4537
g10
(lp4538
g1406
ag12
asbsI72
(imap
Border
p4539
(dp4540
g10
(lp4541
g4211
ag1346
asbsI118
(imap
Border
p4542
(dp4543
g10
(lp4544
g1346
ag1406
asbsI58
(imap
Border
p4545
(dp4546
g10
(lp4547
g1346
ag4211
asbsa(dp4548
I0
(imap
Border
p4549
(dp4550
g10
(lp4551
Nag1346
asbsI200
(imap
Border
p4552
(dp4553
g10
(lp4554
g12
aNasbsI142
(imap
Border
p4555
(dp4556
g10
(lp4557
g1406
ag12
asbsI120
(imap
Border
p4558
(dp4559
g10
(lp4560
g1346
ag1406
asbsI121
(imap
Border
p4561
(dp4562
g10
(lp4563
g12
ag1406
asbsI61
(imap
Border
p4564
(dp4565
g10
(lp4566
g1346
ag4211
asbsI72
(imap
Border
p4567
(dp4568
g10
(lp4569
g4211
ag1346
asbsa(dp4570
I0
(imap
Border
p4571
(dp4572
g10
(lp4573
Nag12
asbsI71
(imap
Border
p4574
(dp4575
g10
(lp4576
g4211
ag12
asbsI200
(imap
Border
p4577
(dp4578
g10
(lp4579
g12
aNasbsI140
(imap
Border
p4580
(dp4581
g10
(lp4582
g1406
ag12
asbsI120
(imap
Border
p4583
(dp4584
g10
(lp4585
g12
ag1406
asbsI122
(imap
Border
p4586
(dp4587
g10
(lp4588
g12
ag1406
asbsI63
(imap
Border
p4589
(dp4590
g10
(lp4591
g12
ag4211
asbsa(dp4592
I0
(imap
Border
p4593
(dp4594
g10
(lp4595
Nag12
asbsI200
(imap
Border
p4596
(dp4597
g10
(lp4598
g12
aNasbsI139
(imap
Border
p4599
(dp4600
g10
(lp4601
g1406
ag12
asbsI120
(imap
Border
p4602
(dp4603
g10
(lp4604
g12
ag1406
asbsa(dp4605
I0
(imap
Border
p4606
(dp4607
g10
(lp4608
Nag1346
asbsI200
(imap
Border
p4609
(dp4610
g10
(lp4611
g12
aNasbsI138
(imap
Border
p4612
(dp4613
g10
(lp4614
g1406
ag12
asbsI18
(imap
Border
p4615
(dp4616
g10
(lp4617
g1346
ag3150
asbsI121
(imap
Border
p4618
(dp4619
g10
(lp4620
g1346
ag1406
asbsI28
(imap
Border
p4621
(dp4622
g10
(lp4623
g3150
ag1346
asbsa(dp4624
I0
(imap
Border
p4625
(dp4626
g10
(lp4627
Nag12
asbsI17
(imap
Border
p4628
(dp4629
g10
(lp4630
g12
ag3150
asbsI200
(imap
Border
p4631
(dp4632
g10
(lp4633
g12
aNasbsI136
(imap
Border
p4634
(dp4635
g10
(lp4636
g1406
ag12
asbsI122
(imap
Border
p4637
(dp4638
g10
(lp4639
g12
ag1406
asbsI123
(imap
Border
p4640
(dp4641
g10
(lp4642
g12
ag1406
asbsI26
(imap
Border
p4643
(dp4644
g10
(lp4645
g3150
ag12
asbsa(dp4646
I0
(imap
Border
p4647
(dp4648
g10
(lp4649
Nag12
asbsI32
(imap
Border
p4650
(dp4651
g10
(lp4652
g3150
ag12
asbsI34
(imap
Border
p4653
(dp4654
g10
(lp4655
g3150
ag12
asbsI134
(imap
Border
p4656
(dp4657
g10
(lp4658
g1406
ag12
asbsI200
(imap
Border
p4659
(dp4660
g10
(lp4661
g12
aNasbsI16
(imap
Border
p4662
(dp4663
g10
(lp4664
g12
ag3150
asbsI124
(imap
Border
p4665
(dp4666
g10
(lp4667
g12
ag1406
asbsI30
(imap
Border
p4668
(dp4669
g10
(lp4670
g12
ag3150
asbsa(dp4671
I0
(imap
Border
p4672
(dp4673
g10
(lp4674
Nag12
asbsI32
(imap
Border
p4675
(dp4676
g10
(lp4677
g3150
ag12
asbsI34
(imap
Border
p4678
(dp4679
g10
(lp4680
g3150
ag12
asbsI133
(imap
Border
p4681
(dp4682
g10
(lp4683
g1406
ag12
asbsI200
(imap
Border
p4684
(dp4685
g10
(lp4686
g12
aNasbsI16
(imap
Border
p4687
(dp4688
g10
(lp4689
g12
ag3150
asbsI124
(imap
Border
p4690
(dp4691
g10
(lp4692
g12
ag1406
asbsa(dp4693
I0
(imap
Border
p4694
(dp4695
g10
(lp4696
Nag12
asbsI128
(imap
Border
p4697
(dp4698
g10
(lp4699
g1406
ag12
asbsI36
(imap
Border
p4700
(dp4701
g10
(lp4702
g3150
ag12
asbsI200
(imap
Border
p4703
(dp4704
g10
(lp4705
g12
aNasbsI14
(imap
Border
p4706
(dp4707
g10
(lp4708
g12
ag3150
asbsI125
(imap
Border
p4709
(dp4710
g10
(lp4711
g12
ag1406
asbsa(dp4712
I0
(imap
Border
p4713
(dp4714
g10
(lp4715
Nag12
asbsI200
(imap
Border
p4716
(dp4717
g10
(lp4718
g3150
aNasbsI14
(imap
Border
p4719
(dp4720
g10
(lp4721
g12
ag3150
asbsI39
(imap
Border
p4722
(dp4723
g10
(lp4724
g3150
ag12
asbsa(dp4725
I0
(imap
Border
p4726
(dp4727
g10
(lp4728
Nag12
asbsI200
(imap
Border
p4729
(dp4730
g10
(lp4731
g3150
aNasbsI14
(imap
Border
p4732
(dp4733
g10
(lp4734
g12
ag3150
asbsI40
(imap
Border
p4735
(dp4736
g10
(lp4737
g3150
ag12
asbsa(dp4738
I0
(imap
Border
p4739
(dp4740
g10
(lp4741
Nag12
asbsI200
(imap
Border
p4742
(dp4743
g10
(lp4744
g12
aNasbsI49
(imap
Border
p4745
(dp4746
g10
(lp4747
g3150
ag12
asbsI14
(imap
Border
p4748
(dp4749
g10
(lp4750
g12
ag3150
asbsa(dp4751
I0
(imap
Border
p4752
(dp4753
g10
(lp4754
Nag12
asbsI200
(imap
Border
p4755
(dp4756
g10
(lp4757
g12
aNasbsI14
(imap
Border
p4758
(dp4759
g10
(lp4760
g12
ag3150
asbsI48
(imap
Border
p4761
(dp4762
g10
(lp4763
g3150
ag12
asbsa(dp4764
I0
(imap
Border
p4765
(dp4766
g10
(lp4767
Nag12
asbsI200
(imap
Border
p4768
(dp4769
g10
(lp4770
g12
aNasbsI50
(imap
Border
p4771
(dp4772
g10
(lp4773
g3150
ag12
asbsI14
(imap
Border
p4774
(dp4775
g10
(lp4776
g12
ag3150
asbsa(dp4777
I0
(imap
Border
p4778
(dp4779
g10
(lp4780
Nag12
asbsI200
(imap
Border
p4781
(dp4782
g10
(lp4783
g12
aNasbsI50
(imap
Border
p4784
(dp4785
g10
(lp4786
g3150
ag12
asbsI14
(imap
Border
p4787
(dp4788
g10
(lp4789
g12
ag3150
asbsa(dp4790
I0
(imap
Border
p4791
(dp4792
g10
(lp4793
Nag12
asbsI200
(imap
Border
p4794
(dp4795
g10
(lp4796
g12
aNasbsI50
(imap
Border
p4797
(dp4798
g10
(lp4799
g3150
ag12
asbsI14
(imap
Border
p4800
(dp4801
g10
(lp4802
g12
ag3150
asbsa(dp4803
I0
(imap
Border
p4804
(dp4805
g10
(lp4806
Nag12
asbsI200
(imap
Border
p4807
(dp4808
g10
(lp4809
g12
aNasbsI14
(imap
Border
p4810
(dp4811
g10
(lp4812
g12
ag3150
asbsI49
(imap
Border
p4813
(dp4814
g10
(lp4815
g3150
ag12
asbsa(dp4816
I0
(imap
Border
p4817
(dp4818
g10
(lp4819
Nag12
asbsI200
(imap
Border
p4820
(dp4821
g10
(lp4822
g12
aNasbsI14
(imap
Border
p4823
(dp4824
g10
(lp4825
g12
ag3150
asbsI40
(imap
Border
p4826
(dp4827
g10
(lp4828
g3150
ag12
asbsa(dp4829
I0
(imap
Border
p4830
(dp4831
g10
(lp4832
Nag12
asbsI200
(imap
Border
p4833
(dp4834
g10
(lp4835
g12
aNasbsI14
(imap
Border
p4836
(dp4837
g10
(lp4838
g12
ag3150
asbsI40
(imap
Border
p4839
(dp4840
g10
(lp4841
g3150
ag12
asbsa(dp4842
I0
(imap
Border
p4843
(dp4844
g10
(lp4845
Nag12
asbsI200
(imap
Border
p4846
(dp4847
g10
(lp4848
g12
aNasbsI14
(imap
Border
p4849
(dp4850
g10
(lp4851
g12
ag3150
asbsI39
(imap
Border
p4852
(dp4853
g10
(lp4854
g3150
ag12
asbsa(dp4855
I0
(imap
Border
p4856
(dp4857
g10
(lp4858
Nag12
asbsI200
(imap
Border
p4859
(dp4860
g10
(lp4861
g12
aNasbsI38
(imap
Border
p4862
(dp4863
g10
(lp4864
g3150
ag12
asbsI14
(imap
Border
p4865
(dp4866
g10
(lp4867
g12
ag3150
asbsa(dp4868
I0
(imap
Border
p4869
(dp4870
g10
(lp4871
Nag12
asbsI200
(imap
Border
p4872
(dp4873
g10
(lp4874
g12
aNasbsI37
(imap
Border
p4875
(dp4876
g10
(lp4877
g3150
ag12
asbsI14
(imap
Border
p4878
(dp4879
g10
(lp4880
g12
ag3150
asbsa(dp4881
I0
(imap
Border
p4882
(dp4883
g10
(lp4884
Nag12
asbsI200
(imap
Border
p4885
(dp4886
g10
(lp4887
g12
aNasbsI36
(imap
Border
p4888
(dp4889
g10
(lp4890
g3150
ag12
asbsI14
(imap
Border
p4891
(dp4892
g10
(lp4893
g12
ag3150
asbsa(dp4894
I0
(imap
Border
p4895
(dp4896
g10
(lp4897
Nag12
asbsI200
(imap
Border
p4898
(dp4899
g10
(lp4900
g12
aNasbsI35
(imap
Border
p4901
(dp4902
g10
(lp4903
g3150
ag12
asbsI14
(imap
Border
p4904
(dp4905
g10
(lp4906
g12
ag3150
asbsa(dp4907
I0
(imap
Border
p4908
(dp4909
g10
(lp4910
Nag12
asbsI200
(imap
Border
p4911
(dp4912
g10
(lp4913
g12
aNasbsI30
(imap
Border
p4914
(dp4915
g10
(lp4916
g3150
ag12
asbsI14
(imap
Border
p4917
(dp4918
g10
(lp4919
g12
ag3150
asbsa(dp4920
I0
(imap
Border
p4921
(dp4922
g10
(lp4923
Nag12
asbsI200
(imap
Border
p4924
(dp4925
g10
(lp4926
g12
aNasbsI29
(imap
Border
p4927
(dp4928
g10
(lp4929
g3150
ag12
asbsI15
(imap
Border
p4930
(dp4931
g10
(lp4932
g12
ag3150
asbsa(dp4933
I0
(imap
Border
p4934
(dp4935
g10
(lp4936
Nag12
asbsI200
(imap
Border
p4937
(dp4938
g10
(lp4939
g12
aNasbsI27
(imap
Border
p4940
(dp4941
g10
(lp4942
g3150
ag12
asbsI15
(imap
Border
p4943
(dp4944
g10
(lp4945
g12
ag3150
asbsa(dp4946
I0
(imap
Border
p4947
(dp4948
g10
(lp4949
Nag12
asbsI200
(imap
Border
p4950
(dp4951
g10
(lp4952
g12
aNasbsI22
(imap
Border
p4953
(dp4954
g10
(lp4955
g3150
ag12
asbsI17
(imap
Border
p4956
(dp4957
g10
(lp4958
g12
ag3150
asbsa(dp4959
I0
(imap
Border
p4960
(dp4961
g10
(lp4962
Nag12
asbsI200
(imap
Border
p4963
(dp4964
g10
(lp4965
g12
aNasbsI20
(imap
Border
p4966
(dp4967
g10
(lp4968
g12
ag3150
asbsI22
(imap
Border
p4969
(dp4970
g10
(lp4971
g3150
ag12
asbsa(dp4972
I0
(imap
Border
p4973
(dp4974
g10
(lp4975
Nag12
asbsI200
(imap
Border
p4976
(dp4977
g10
(lp4978
g12
aNasbsa(dp4979
I0
(imap
Border
p4980
(dp4981
g10
(lp4982
Nag12
asbsI200
(imap
Border
p4983
(dp4984
g10
(lp4985
g12
aNasbsa(dp4986
I0
(imap
Border
p4987
(dp4988
g10
(lp4989
Nag12
asbsI200
(imap
Border
p4990
(dp4991
g10
(lp4992
g12
aNasbsa(dp4993
I0
(imap
Border
p4994
(dp4995
g10
(lp4996
Nag12
asbsI200
(imap
Border
p4997
(dp4998
g10
(lp4999
g12
aNasbsa(dp5000
I0
(imap
Border
p5001
(dp5002
g10
(lp5003
Nag12
asbsI200
(imap
Border
p5004
(dp5005
g10
(lp5006
g12
aNasbsa(dp5007
I0
(imap
Border
p5008
(dp5009
g10
(lp5010
Nag12
asbsI200
(imap
Border
p5011
(dp5012
g10
(lp5013
g12
aNasbsa(dp5014
I0
(imap
Border
p5015
(dp5016
g10
(lp5017
Nag12
asbsI200
(imap
Border
p5018
(dp5019
g10
(lp5020
g12
aNasbsa(dp5021
I0
(imap
Border
p5022
(dp5023
g10
(lp5024
Nag12
asbsI200
(imap
Border
p5025
(dp5026
g10
(lp5027
g12
aNasbsa(dp5028
I0
(imap
Border
p5029
(dp5030
g10
(lp5031
Nag12
asbsI200
(imap
Border
p5032
(dp5033
g10
(lp5034
g3078
aNasbsI43
(imap
Border
p5035
(dp5036
g10
(lp5037
g12
ag3078
asbsI44
(imap
Border
p5038
(dp5039
g10
(lp5040
g12
ag3078
asbsI45
(imap
Border
p5041
(dp5042
g10
(lp5043
g3078
ag12
asbsa(dp5044
I0
(imap
Border
p5045
(dp5046
g10
(lp5047
Nag12
asbsI200
(imap
Border
p5048
(dp5049
g10
(lp5050
g3078
aNasbsI42
(imap
Border
p5051
(dp5052
g10
(lp5053
g12
ag3078
asbsI47
(imap
Border
p5054
(dp5055
g10
(lp5056
g3078
ag12
asbsa(dp5057
I0
(imap
Border
p5058
(dp5059
g10
(lp5060
Nag12
asbsI200
(imap
Border
p5061
(dp5062
g10
(lp5063
g3078
aNasbsI41
(imap
Border
p5064
(dp5065
g10
(lp5066
g12
ag3078
asbsI47
(imap
Border
p5067
(dp5068
g10
(lp5069
g3078
ag12
asbsa(dp5070
I0
(imap
Border
p5071
(dp5072
g10
(lp5073
Nag12
asbsI200
(imap
Border
p5074
(dp5075
g10
(lp5076
g12
aNasbsI40
(imap
Border
p5077
(dp5078
g10
(lp5079
g12
ag3078
asbsI48
(imap
Border
p5080
(dp5081
g10
(lp5082
g3078
ag12
asbsa(dp5083
I0
(imap
Border
p5084
(dp5085
g10
(lp5086
Nag12
asbsI200
(imap
Border
p5087
(dp5088
g10
(lp5089
g12
aNasbsI40
(imap
Border
p5090
(dp5091
g10
(lp5092
g12
ag3078
asbsI48
(imap
Border
p5093
(dp5094
g10
(lp5095
g3078
ag12
asbsa(dp5096
I0
(imap
Border
p5097
(dp5098
g10
(lp5099
Nag12
asbsI200
(imap
Border
p5100
(dp5101
g10
(lp5102
g12
aNasbsI40
(imap
Border
p5103
(dp5104
g10
(lp5105
g12
ag3078
asbsI48
(imap
Border
p5106
(dp5107
g10
(lp5108
g3078
ag12
asbsa(dp5109
I0
(imap
Border
p5110
(dp5111
g10
(lp5112
Nag12
asbsI200
(imap
Border
p5113
(dp5114
g10
(lp5115
g12
aNasbsI40
(imap
Border
p5116
(dp5117
g10
(lp5118
g12
ag3078
asbsI48
(imap
Border
p5119
(dp5120
g10
(lp5121
g3078
ag12
asbsa(dp5122
I0
(imap
Border
p5123
(dp5124
g10
(lp5125
Nag12
asbsI200
(imap
Border
p5126
(dp5127
g10
(lp5128
g12
aNasbsI40
(imap
Border
p5129
(dp5130
g10
(lp5131
g12
ag3078
asbsI48
(imap
Border
p5132
(dp5133
g10
(lp5134
g3078
ag12
asbsa(dp5135
I0
(imap
Border
p5136
(dp5137
g10
(lp5138
Nag12
asbsI200
(imap
Border
p5139
(dp5140
g10
(lp5141
g12
aNasbsI42
(imap
Border
p5142
(dp5143
g10
(lp5144
g12
ag3078
asbsI45
(imap
Border
p5145
(dp5146
g10
(lp5147
g3078
ag12
asbsI57
(imap
Border
p5148
(dp5149
g10
(lp5150
g12
ag3021
asbsI60
(imap
Border
p5151
(dp5152
g10
(lp5153
g3021
ag12
asbsa(dp5154
I0
(imap
Border
p5155
(dp5156
g10
(lp5157
Nag12
asbsI200
(imap
Border
p5158
(dp5159
g10
(lp5160
g12
aNasbsI57
(imap
Border
p5161
(dp5162
g10
(lp5163
g12
ag3021
asbsI61
(imap
Border
p5164
(dp5165
g10
(lp5166
g3021
ag12
asbsa(dp5167
I0
(imap
Border
p5168
(dp5169
g10
(lp5170
Nag12
asbsI200
(imap
Border
p5171
(dp5172
g10
(lp5173
g12
aNasbsI57
(imap
Border
p5174
(dp5175
g10
(lp5176
g12
ag3021
asbsI62
(imap
Border
p5177
(dp5178
g10
(lp5179
g3021
ag12
asbsa(dp5180
I0
(imap
Border
p5181
(dp5182
g10
(lp5183
Nag12
asbsI200
(imap
Border
p5184
(dp5185
g10
(lp5186
g12
aNasbsI57
(imap
Border
p5187
(dp5188
g10
(lp5189
g12
ag3021
asbsI61
(imap
Border
p5190
(dp5191
g10
(lp5192
g3021
ag12
asbsa(dp5193
I0
(imap
Border
p5194
(dp5195
g10
(lp5196
Nag12
asbsI200
(imap
Border
p5197
(dp5198
g10
(lp5199
g12
aNasbsa(dp5200
I0
(imap
Border
p5201
(dp5202
g10
(lp5203
NaS'ocean'
p5204
asbsI200
(imap
Border
p5205
(dp5206
g10
(lp5207
g5204
aNasbsa(dp5208
I0
(imap
Border
p5209
(dp5210
g10
(lp5211
Nag12
asbsI200
(imap
Border
p5212
(dp5213
g10
(lp5214
g5204
aNasbsI62
(imap
Border
p5215
(dp5216
g10
(lp5217
g12
ag3021
asbsI63
(imap
Border
p5218
(dp5219
g10
(lp5220
g3021
ag5204
asbsa(dp5221
I0
(imap
Border
p5222
(dp5223
g10
(lp5224
Nag12
asbsI200
(imap
Border
p5225
(dp5226
g10
(lp5227
g5204
aNasbsI59
(imap
Border
p5228
(dp5229
g10
(lp5230
g12
ag3021
asbsI63
(imap
Border
p5231
(dp5232
g10
(lp5233
g3021
ag5204
asbsa(dp5234
I0
(imap
Border
p5235
(dp5236
g10
(lp5237
Nag12
asbsI200
(imap
Border
p5238
(dp5239
g10
(lp5240
g12
aNasbsI50
(imap
Border
p5241
(dp5242
g10
(lp5243
g12
ag3021
asbsI63
(imap
Border
p5244
(dp5245
g10
(lp5246
g3021
ag12
asbsa(dp5247
I0
(imap
Border
p5248
(dp5249
g10
(lp5250
Nag12
asbsI200
(imap
Border
p5251
(dp5252
g10
(lp5253
g12
aNasbsI50
(imap
Border
p5254
(dp5255
g10
(lp5256
g12
ag3021
asbsI63
(imap
Border
p5257
(dp5258
g10
(lp5259
g3021
ag12
asbsa(dp5260
I0
(imap
Border
p5261
(dp5262
g10
(lp5263
Nag12
asbsI200
(imap
Border
p5264
(dp5265
g10
(lp5266
g12
aNasbsI51
(imap
Border
p5267
(dp5268
g10
(lp5269
g12
ag3021
asbsI63
(imap
Border
p5270
(dp5271
g10
(lp5272
g3021
ag12
asbsa(dp5273
I0
(imap
Border
p5274
(dp5275
g10
(lp5276
Nag12
asbsI200
(imap
Border
p5277
(dp5278
g10
(lp5279
g12
aNasbsI53
(imap
Border
p5280
(dp5281
g10
(lp5282
g12
ag3021
asbsI62
(imap
Border
p5283
(dp5284
g10
(lp5285
g3021
ag12
asbsa(dp5286
I0
(imap
Border
p5287
(dp5288
g10
(lp5289
Nag12
asbsI200
(imap
Border
p5290
(dp5291
g10
(lp5292
g12
aNasbsI54
(imap
Border
p5293
(dp5294
g10
(lp5295
g12
ag3021
asbsI62
(imap
Border
p5296
(dp5297
g10
(lp5298
g3021
ag12
asbsa(dp5299
I0
(imap
Border
p5300
(dp5301
g10
(lp5302
Nag12
asbsI200
(imap
Border
p5303
(dp5304
g10
(lp5305
g12
aNasbsI57
(imap
Border
p5306
(dp5307
g10
(lp5308
g12
ag3021
asbsI60
(imap
Border
p5309
(dp5310
g10
(lp5311
g3021
ag12
asbsa(dp5312
I0
(imap
Border
p5313
(dp5314
g10
(lp5315
Nag12
asbsI200
(imap
Border
p5316
(dp5317
g10
(lp5318
g12
aNasbsa(dp5319
I0
(imap
Border
p5320
(dp5321
g10
(lp5322
Nag12
asbsI200
(imap
Border
p5323
(dp5324
g10
(lp5325
g12
aNasbsa(dp5326
I0
(imap
Border
p5327
(dp5328
g10
(lp5329
Nag12
asbsI200
(imap
Border
p5330
(dp5331
g10
(lp5332
g12
aNasbsa(dp5333
I0
(imap
Border
p5334
(dp5335
g10
(lp5336
Nag12
asbsI200
(imap
Border
p5337
(dp5338
g10
(lp5339
g12
aNasbsa(dp5340
I0
(imap
Border
p5341
(dp5342
g10
(lp5343
Nag12
asbsI200
(imap
Border
p5344
(dp5345
g10
(lp5346
g12
aNasbsa(dp5347
I0
(imap
Border
p5348
(dp5349
g10
(lp5350
Nag12
asbsI200
(imap
Border
p5351
(dp5352
g10
(lp5353
g12
aNasbsa(dp5354
I0
(imap
Border
p5355
(dp5356
g10
(lp5357
Nag12
asbsI200
(imap
Border
p5358
(dp5359
g10
(lp5360
g12
aNasbsa(dp5361
I0
(imap
Border
p5362
(dp5363
g10
(lp5364
Nag12
asbsI200
(imap
Border
p5365
(dp5366
g10
(lp5367
g12
aNasbsa(dp5368
I0
(imap
Border
p5369
(dp5370
g10
(lp5371
Nag12
asbsI200
(imap
Border
p5372
(dp5373
g10
(lp5374
g12
aNasbsa(dp5375
I0
(imap
Border
p5376
(dp5377
g10
(lp5378
Nag12
asbsI200
(imap
Border
p5379
(dp5380
g10
(lp5381
g12
aNasbsa(dp5382
I0
(imap
Border
p5383
(dp5384
g10
(lp5385
Nag12
asbsI200
(imap
Border
p5386
(dp5387
g10
(lp5388
g12
aNasbsa(dp5389
I0
(imap
Border
p5390
(dp5391
g10
(lp5392
Nag12
asbsI200
(imap
Border
p5393
(dp5394
g10
(lp5395
g12
aNasbsa(dp5396
I0
(imap
Border
p5397
(dp5398
g10
(lp5399
Nag12
asbsI200
(imap
Border
p5400
(dp5401
g10
(lp5402
g12
aNasbsa(dp5403
I0
(imap
Border
p5404
(dp5405
g10
(lp5406
Nag12
asbsI200
(imap
Border
p5407
(dp5408
g10
(lp5409
g12
aNasbsa(dp5410
I0
(imap
Border
p5411
(dp5412
g10
(lp5413
Nag12
asbsI200
(imap
Border
p5414
(dp5415
g10
(lp5416
g12
aNasbsa(dp5417
I0
(imap
Border
p5418
(dp5419
g10
(lp5420
Nag12
asbsI200
(imap
Border
p5421
(dp5422
g10
(lp5423
g12
aNasbsa(dp5424
I0
(imap
Border
p5425
(dp5426
g10
(lp5427
Nag12
asbsI200
(imap
Border
p5428
(dp5429
g10
(lp5430
g12
aNasbsa(dp5431
I0
(imap
Border
p5432
(dp5433
g10
(lp5434
Nag12
asbsI200
(imap
Border
p5435
(dp5436
g10
(lp5437
g12
aNasbsa(dp5438
I0
(imap
Border
p5439
(dp5440
g10
(lp5441
Nag12
asbsI200
(imap
Border
p5442
(dp5443
g10
(lp5444
g12
aNasbsa(dp5445
I0
(imap
Border
p5446
(dp5447
g10
(lp5448
Nag12
asbsI200
(imap
Border
p5449
(dp5450
g10
(lp5451
g12
aNasbsa(dp5452
I0
(imap
Border
p5453
(dp5454
g10
(lp5455
Nag12
asbsI200
(imap
Border
p5456
(dp5457
g10
(lp5458
g12
aNasbsa(dp5459
I0
(imap
Border
p5460
(dp5461
g10
(lp5462
Nag12
asbsI200
(imap
Border
p5463
(dp5464
g10
(lp5465
g12
aNasbsa(dp5466
I0
(imap
Border
p5467
(dp5468
g10
(lp5469
Nag12
asbsI200
(imap
Border
p5470
(dp5471
g10
(lp5472
g12
aNasbsa(dp5473
I0
(imap
Border
p5474
(dp5475
g10
(lp5476
Nag12
asbsI200
(imap
Border
p5477
(dp5478
g10
(lp5479
g12
aNasbsa(dp5480
I0
(imap
Border
p5481
(dp5482
g10
(lp5483
Nag12
asbsI200
(imap
Border
p5484
(dp5485
g10
(lp5486
g12
aNasbsa(dp5487
I0
(imap
Border
p5488
(dp5489
g10
(lp5490
Nag12
asbsI200
(imap
Border
p5491
(dp5492
g10
(lp5493
g12
aNasbsa(dp5494
I0
(imap
Border
p5495
(dp5496
g10
(lp5497
Nag12
asbsI200
(imap
Border
p5498
(dp5499
g10
(lp5500
g12
aNasbsa(dp5501
I0
(imap
Border
p5502
(dp5503
g10
(lp5504
Nag12
asbsI200
(imap
Border
p5505
(dp5506
g10
(lp5507
g12
aNasbsa(dp5508
I0
(imap
Border
p5509
(dp5510
g10
(lp5511
Nag12
asbsI200
(imap
Border
p5512
(dp5513
g10
(lp5514
g12
aNasbsa(dp5515
I0
(imap
Border
p5516
(dp5517
g10
(lp5518
Nag12
asbsI200
(imap
Border
p5519
(dp5520
g10
(lp5521
g12
aNasbsa(dp5522
I0
(imap
Border
p5523
(dp5524
g10
(lp5525
Nag12
asbsI200
(imap
Border
p5526
(dp5527
g10
(lp5528
g12
aNasbsa(dp5529
I0
(imap
Border
p5530
(dp5531
g10
(lp5532
Nag12
asbsI200
(imap
Border
p5533
(dp5534
g10
(lp5535
g12
aNasbsa(dp5536
I0
(imap
Border
p5537
(dp5538
g10
(lp5539
Nag12
asbsI200
(imap
Border
p5540
(dp5541
g10
(lp5542
g12
aNasbsa(dp5543
I0
(imap
Border
p5544
(dp5545
g10
(lp5546
Nag12
asbsI200
(imap
Border
p5547
(dp5548
g10
(lp5549
g12
aNasbsa(dp5550
I0
(imap
Border
p5551
(dp5552
g10
(lp5553
Nag12
asbsI200
(imap
Border
p5554
(dp5555
g10
(lp5556
g12
aNasbsa(dp5557
I0
(imap
Border
p5558
(dp5559
g10
(lp5560
Nag12
asbsI200
(imap
Border
p5561
(dp5562
g10
(lp5563
g12
aNasbsa(dp5564
I0
(imap
Border
p5565
(dp5566
g10
(lp5567
Nag12
asbsI200
(imap
Border
p5568
(dp5569
g10
(lp5570
g12
aNasbsa(dp5571
I0
(imap
Border
p5572
(dp5573
g10
(lp5574
Nag12
asbsI200
(imap
Border
p5575
(dp5576
g10
(lp5577
g12
aNasbsa(dp5578
I0
(imap
Border
p5579
(dp5580
g10
(lp5581
Nag12
asbsI200
(imap
Border
p5582
(dp5583
g10
(lp5584
g12
aNasbsa(dp5585
I0
(imap
Border
p5586
(dp5587
g10
(lp5588
Nag12
asbsI200
(imap
Border
p5589
(dp5590
g10
(lp5591
g12
aNasbsa(dp5592
I0
(imap
Border
p5593
(dp5594
g10
(lp5595
Nag12
asbsI200
(imap
Border
p5596
(dp5597
g10
(lp5598
g12
aNasbsa(dp5599
I0
(imap
Border
p5600
(dp5601
g10
(lp5602
Nag12
asbsI200
(imap
Border
p5603
(dp5604
g10
(lp5605
g12
aNasbsa(dp5606
I0
(imap
Border
p5607
(dp5608
g10
(lp5609
Nag12
asbsI200
(imap
Border
p5610
(dp5611
g10
(lp5612
g12
aNasbsa(dp5613
I0
(imap
Border
p5614
(dp5615
g10
(lp5616
Nag12
asbsI200
(imap
Border
p5617
(dp5618
g10
(lp5619
g12
aNasbsa(dp5620
I0
(imap
Border
p5621
(dp5622
g10
(lp5623
Nag12
asbsI200
(imap
Border
p5624
(dp5625
g10
(lp5626
g12
aNasbsa(dp5627
I0
(imap
Border
p5628
(dp5629
g10
(lp5630
Nag12
asbsI200
(imap
Border
p5631
(dp5632
g10
(lp5633
g12
aNasbsa(dp5634
I0
(imap
Border
p5635
(dp5636
g10
(lp5637
Nag12
asbsI200
(imap
Border
p5638
(dp5639
g10
(lp5640
g12
aNasbsa(dp5641
I0
(imap
Border
p5642
(dp5643
g10
(lp5644
Nag12
asbsI200
(imap
Border
p5645
(dp5646
g10
(lp5647
g12
aNasbsa(dp5648
I0
(imap
Border
p5649
(dp5650
g10
(lp5651
Nag12
asbsI200
(imap
Border
p5652
(dp5653
g10
(lp5654
g12
aNasbsa(dp5655
I0
(imap
Border
p5656
(dp5657
g10
(lp5658
Nag12
asbsI200
(imap
Border
p5659
(dp5660
g10
(lp5661
g12
aNasbsa(dp5662
I0
(imap
Border
p5663
(dp5664
g10
(lp5665
Nag12
asbsI200
(imap
Border
p5666
(dp5667
g10
(lp5668
g12
aNasbsa(dp5669
I0
(imap
Border
p5670
(dp5671
g10
(lp5672
Nag12
asbsI200
(imap
Border
p5673
(dp5674
g10
(lp5675
g12
aNasbsa(dp5676
I0
(imap
Border
p5677
(dp5678
g10
(lp5679
Nag12
asbsI200
(imap
Border
p5680
(dp5681
g10
(lp5682
g12
aNasbsa(dp5683
I0
(imap
Border
p5684
(dp5685
g10
(lp5686
Nag12
asbsI200
(imap
Border
p5687
(dp5688
g10
(lp5689
g12
aNasbsa(dp5690
I0
(imap
Border
p5691
(dp5692
g10
(lp5693
Nag12
asbsI200
(imap
Border
p5694
(dp5695
g10
(lp5696
g12
aNasbsa(dp5697
I0
(imap
Border
p5698
(dp5699
g10
(lp5700
Nag12
asbsI200
(imap
Border
p5701
(dp5702
g10
(lp5703
g12
aNasbsa(dp5704
I0
(imap
Border
p5705
(dp5706
g10
(lp5707
Nag12
asbsI200
(imap
Border
p5708
(dp5709
g10
(lp5710
g12
aNasbsa(dp5711
I0
(imap
Border
p5712
(dp5713
g10
(lp5714
Nag12
asbsI200
(imap
Border
p5715
(dp5716
g10
(lp5717
g12
aNasbsa(dp5718
I0
(imap
Border
p5719
(dp5720
g10
(lp5721
Nag12
asbsI200
(imap
Border
p5722
(dp5723
g10
(lp5724
g12
aNasbsa(dp5725
I0
(imap
Border
p5726
(dp5727
g10
(lp5728
Nag12
asbsI200
(imap
Border
p5729
(dp5730
g10
(lp5731
g12
aNasbsa(dp5732
I0
(imap
Border
p5733
(dp5734
g10
(lp5735
Nag12
asbsI200
(imap
Border
p5736
(dp5737
g10
(lp5738
g12
aNasbsa(dp5739
I0
(imap
Border
p5740
(dp5741
g10
(lp5742
Nag12
asbsI200
(imap
Border
p5743
(dp5744
g10
(lp5745
g12
aNasbsa(dp5746
I0
(imap
Border
p5747
(dp5748
g10
(lp5749
Nag12
asbsI200
(imap
Border
p5750
(dp5751
g10
(lp5752
g12
aNasbsa(dp5753
I0
(imap
Border
p5754
(dp5755
g10
(lp5756
Nag12
asbsI200
(imap
Border
p5757
(dp5758
g10
(lp5759
g12
aNasbsa(dp5760
I0
(imap
Border
p5761
(dp5762
g10
(lp5763
Nag12
asbsI200
(imap
Border
p5764
(dp5765
g10
(lp5766
g12
aNasbsa(dp5767
I0
(imap
Border
p5768
(dp5769
g10
(lp5770
Nag12
asbsI200
(imap
Border
p5771
(dp5772
g10
(lp5773
g12
aNasbsa(dp5774
I0
(imap
Border
p5775
(dp5776
g10
(lp5777
Nag12
asbsI200
(imap
Border
p5778
(dp5779
g10
(lp5780
g12
aNasbsa(dp5781
I0
(imap
Border
p5782
(dp5783
g10
(lp5784
Nag12
asbsI200
(imap
Border
p5785
(dp5786
g10
(lp5787
g12
aNasbsa(dp5788
I0
(imap
Border
p5789
(dp5790
g10
(lp5791
Nag12
asbsI200
(imap
Border
p5792
(dp5793
g10
(lp5794
g12
aNasbsa(dp5795
I0
(imap
Border
p5796
(dp5797
g10
(lp5798
Nag12
asbsI200
(imap
Border
p5799
(dp5800
g10
(lp5801
g12
aNasbsa(dp5802
I0
(imap
Border
p5803
(dp5804
g10
(lp5805
Nag12
asbsI200
(imap
Border
p5806
(dp5807
g10
(lp5808
g12
aNasbsa(dp5809
I0
(imap
Border
p5810
(dp5811
g10
(lp5812
Nag12
asbsI200
(imap
Border
p5813
(dp5814
g10
(lp5815
g12
aNasbsa(dp5816
I0
(imap
Border
p5817
(dp5818
g10
(lp5819
Nag12
asbsI200
(imap
Border
p5820
(dp5821
g10
(lp5822
g12
aNasbsa(dp5823
I0
(imap
Border
p5824
(dp5825
g10
(lp5826
Nag12
asbsI200
(imap
Border
p5827
(dp5828
g10
(lp5829
g12
aNasbsa(dp5830
I0
(imap
Border
p5831
(dp5832
g10
(lp5833
Nag12
asbsI200
(imap
Border
p5834
(dp5835
g10
(lp5836
g12
aNasbsa(dp5837
I0
(imap
Border
p5838
(dp5839
g10
(lp5840
Nag12
asbsI200
(imap
Border
p5841
(dp5842
g10
(lp5843
g12
aNasbsa(dp5844
I0
(imap
Border
p5845
(dp5846
g10
(lp5847
Nag12
asbsI200
(imap
Border
p5848
(dp5849
g10
(lp5850
g12
aNasbsa(dp5851
I0
(imap
Border
p5852
(dp5853
g10
(lp5854
Nag12
asbsI200
(imap
Border
p5855
(dp5856
g10
(lp5857
g12
aNasbsa(dp5858
I0
(imap
Border
p5859
(dp5860
g10
(lp5861
Nag12
asbsI200
(imap
Border
p5862
(dp5863
g10
(lp5864
g12
aNasbsa(dp5865
I0
(imap
Border
p5866
(dp5867
g10
(lp5868
Nag12
asbsI200
(imap
Border
p5869
(dp5870
g10
(lp5871
g12
aNasbsa(dp5872
I0
(imap
Border
p5873
(dp5874
g10
(lp5875
Nag12
asbsI200
(imap
Border
p5876
(dp5877
g10
(lp5878
g12
aNasbsa(dp5879
I0
(imap
Border
p5880
(dp5881
g10
(lp5882
Nag12
asbsI200
(imap
Border
p5883
(dp5884
g10
(lp5885
g12
aNasbsa(dp5886
I0
(imap
Border
p5887
(dp5888
g10
(lp5889
Nag12
asbsI200
(imap
Border
p5890
(dp5891
g10
(lp5892
g12
aNasbsa(dp5893
I0
(imap
Border
p5894
(dp5895
g10
(lp5896
Nag12
asbsI200
(imap
Border
p5897
(dp5898
g10
(lp5899
g12
aNasbsa(dp5900
I0
(imap
Border
p5901
(dp5902
g10
(lp5903
Nag12
asbsI200
(imap
Border
p5904
(dp5905
g10
(lp5906
g12
aNasbsa(dp5907
I0
(imap
Border
p5908
(dp5909
g10
(lp5910
Nag12
asbsI200
(imap
Border
p5911
(dp5912
g10
(lp5913
g12
aNasbsa(dp5914
I0
(imap
Border
p5915
(dp5916
g10
(lp5917
Nag12
asbsI200
(imap
Border
p5918
(dp5919
g10
(lp5920
g12
aNasbsa(dp5921
I0
(imap
Border
p5922
(dp5923
g10
(lp5924
Nag12
asbsI200
(imap
Border
p5925
(dp5926
g10
(lp5927
g12
aNasbsa(dp5928
asb.